
AVRASM ver. 2.1.30  C:\cvavr\SD multitrack package data ATXmega\Release\List\sdcard_e5.asm Sat Apr 09 01:22:48 2016

C:\cvavr\SD multitrack package data ATXmega\Release\List\sdcard_e5.asm(1104): warning: Register r3 already defined by the .DEF directive
C:\cvavr\SD multitrack package data ATXmega\Release\List\sdcard_e5.asm(1105): warning: Register r4 already defined by the .DEF directive
C:\cvavr\SD multitrack package data ATXmega\Release\List\sdcard_e5.asm(1106): warning: Register r5 already defined by the .DEF directive
C:\cvavr\SD multitrack package data ATXmega\Release\List\sdcard_e5.asm(1107): warning: Register r6 already defined by the .DEF directive
C:\cvavr\SD multitrack package data ATXmega\Release\List\sdcard_e5.asm(1108): warning: Register r7 already defined by the .DEF directive
C:\cvavr\SD multitrack package data ATXmega\Release\List\sdcard_e5.asm(1109): warning: Register r8 already defined by the .DEF directive
C:\cvavr\SD multitrack package data ATXmega\Release\List\sdcard_e5.asm(1110): warning: Register r9 already defined by the .DEF directive
C:\cvavr\SD multitrack package data ATXmega\Release\List\sdcard_e5.asm(1111): warning: Register r2 already defined by the .DEF directive
C:\cvavr\SD multitrack package data ATXmega\Release\List\sdcard_e5.asm(1112): warning: Register r10 already defined by the .DEF directive
C:\cvavr\SD multitrack package data ATXmega\Release\List\sdcard_e5.asm(1113): warning: Register r11 already defined by the .DEF directive
C:\cvavr\SD multitrack package data ATXmega\Release\List\sdcard_e5.asm(1114): warning: Register r13 already defined by the .DEF directive
C:\cvavr\SD multitrack package data ATXmega\Release\List\sdcard_e5.asm(1115): warning: Register r12 already defined by the .DEF directive
                 
                 
                 ;CodeVisionAVR C Compiler V3.12 Advanced
                 ;(C) Copyright 1998-2014 Pavel Haiduc, HP InfoTech s.r.l.
                 ;http://www.hpinfotech.com
                 
                 ;Build configuration    : Release
                 ;Chip type              : ATxmega32A4U
                 ;Program type           : Application
                 ;Clock frequency        : 32,000000 MHz
                 ;Memory model           : Small
                 ;Optimize for           : Speed
                 ;(s)printf features     : long, width
                 ;(s)scanf features      : int, width
                 ;External RAM size      : 0
                 ;Data Stack size        : 1024 byte(s)
                 ;Heap size              : 0 byte(s)
                 ;Promote 'char' to 'int': No
                 ;'char' is unsigned     : Yes
                 ;8 bit enums            : Yes
                 ;Global 'const' stored in FLASH: Yes
                 ;Enhanced function parameter passing: Yes
                 ;Enhanced core instructions: On
                 ;Automatic register allocation for global variables: On
                 ;Smart register allocation: On
                 
                 	#define _MODEL_SMALL_
                 
                 	#pragma AVRPART ADMIN PART_NAME ATxmega32A4U
                 	#pragma AVRPART MEMORY PROG_FLASH 36864
                 	#pragma AVRPART MEMORY EEPROM 1024
                 	#pragma AVRPART MEMORY INT_SRAM SIZE 4096
                 	#pragma AVRPART MEMORY INT_SRAM START_ADDR 0x2000
                 
                 	#define CALL_SUPPORTED 1
                 
                 	.LISTMAC
                 	.EQU CCP=0x34
                 	.EQU RAMPD=0x38
                 	.EQU RAMPX=0x39
                 	.EQU RAMPY=0x3A
                 	.EQU RAMPZ=0x3B
                 	.EQU EIND=0x3C
                 	.EQU WDT_CTRL=0x80
                 	.EQU PMIC_CTRL=0xA2
                 	.EQU NVM_ADDR0=0X01C0
                 	.EQU NVM_ADDR1=NVM_ADDR0+1
                 	.EQU NVM_ADDR2=NVM_ADDR1+1
                 	.EQU NVM_DATA0=NVM_ADDR0+4
                 	.EQU NVM_CMD=NVM_ADDR0+0xA
                 	.EQU NVM_CTRLA=NVM_ADDR0+0xB
                 	.EQU NVM_CTRLB=NVM_ADDR0+0xC
                 	.EQU NVM_STATUS=NVM_ADDR0+0xF
                 	.EQU SPL=0x3D
                 	.EQU SPH=0x3E
                 	.EQU SREG=0x3F
                 	.EQU GPIO0=0x00
                 	.EQU GPIO1=0x01
                 	.EQU GPIO2=0x02
                 	.EQU GPIO3=0x03
                 	.EQU GPIO4=0x04
                 	.EQU GPIO5=0x05
                 	.EQU GPIO6=0x06
                 	.EQU GPIO7=0x07
                 	.EQU GPIO8=0x08
                 	.EQU GPIO9=0x09
                 	.EQU GPIO10=0x0A
                 	.EQU GPIO11=0x0B
                 	.EQU GPIO12=0x0C
                 	.EQU GPIO13=0x0D
                 	.EQU GPIO14=0x0E
                 	.EQU GPIO15=0x0F
                 
                 	.DEF R0X0=R0
                 	.DEF R0X1=R1
                 	.DEF R0X2=R2
                 	.DEF R0X3=R3
                 	.DEF R0X4=R4
                 	.DEF R0X5=R5
                 	.DEF R0X6=R6
                 	.DEF R0X7=R7
                 	.DEF R0X8=R8
                 	.DEF R0X9=R9
                 	.DEF R0XA=R10
                 	.DEF R0XB=R11
                 	.DEF R0XC=R12
                 	.DEF R0XD=R13
                 	.DEF R0XE=R14
                 	.DEF R0XF=R15
                 	.DEF R0X10=R16
                 	.DEF R0X11=R17
                 	.DEF R0X12=R18
                 	.DEF R0X13=R19
                 	.DEF R0X14=R20
                 	.DEF R0X15=R21
                 	.DEF R0X16=R22
                 	.DEF R0X17=R23
                 	.DEF R0X18=R24
                 	.DEF R0X19=R25
                 	.DEF R0X1A=R26
                 	.DEF R0X1B=R27
                 	.DEF R0X1C=R28
                 	.DEF R0X1D=R29
                 	.DEF R0X1E=R30
                 	.DEF R0X1F=R31
                 
                 	.EQU __SRAM_START=0x2000
                 	.EQU __SRAM_END=0x2FFF
                 	.EQU __DSTACK_SIZE=0x0400
                 	.EQU __HEAP_SIZE=0x0000
                 	.EQU __CLEAR_SRAM_SIZE=__SRAM_END-__SRAM_START+1
                 
                 	.MACRO __CPD1N
                 	CPI  R30,LOW(@0)
                 	LDI  R26,HIGH(@0)
                 	CPC  R31,R26
                 	LDI  R26,BYTE3(@0)
                 	CPC  R22,R26
                 	LDI  R26,BYTE4(@0)
                 	CPC  R23,R26
                 	.ENDM
                 
                 	.MACRO __CPD2N
                 	CPI  R26,LOW(@0)
                 	LDI  R30,HIGH(@0)
                 	CPC  R27,R30
                 	LDI  R30,BYTE3(@0)
                 	CPC  R24,R30
                 	LDI  R30,BYTE4(@0)
                 	CPC  R25,R30
                 	.ENDM
                 
                 	.MACRO __CPWRR
                 	CP   R@0,R@2
                 	CPC  R@1,R@3
                 	.ENDM
                 
                 	.MACRO __CPWRN
                 	CPI  R@0,LOW(@2)
                 	LDI  R30,HIGH(@2)
                 	CPC  R@1,R30
                 	.ENDM
                 
                 	.MACRO __ADDB1MN
                 	SUBI R30,LOW(-@0-(@1))
                 	.ENDM
                 
                 	.MACRO __ADDB2MN
                 	SUBI R26,LOW(-@0-(@1))
                 	.ENDM
                 
                 	.MACRO __ADDW1MN
                 	SUBI R30,LOW(-@0-(@1))
                 	SBCI R31,HIGH(-@0-(@1))
                 	.ENDM
                 
                 	.MACRO __ADDW2MN
                 	SUBI R26,LOW(-@0-(@1))
                 	SBCI R27,HIGH(-@0-(@1))
                 	.ENDM
                 
                 	.MACRO __ADDW1FN
                 	SUBI R30,LOW(-2*@0-(@1))
                 	SBCI R31,HIGH(-2*@0-(@1))
                 	.ENDM
                 
                 	.MACRO __ADDD1FN
                 	SUBI R30,LOW(-2*@0-(@1))
                 	SBCI R31,HIGH(-2*@0-(@1))
                 	SBCI R22,BYTE3(-2*@0-(@1))
                 	.ENDM
                 
                 	.MACRO __ADDD1N
                 	SUBI R30,LOW(-@0)
                 	SBCI R31,HIGH(-@0)
                 	SBCI R22,BYTE3(-@0)
                 	SBCI R23,BYTE4(-@0)
                 	.ENDM
                 
                 	.MACRO __ADDD2N
                 	SUBI R26,LOW(-@0)
                 	SBCI R27,HIGH(-@0)
                 	SBCI R24,BYTE3(-@0)
                 	SBCI R25,BYTE4(-@0)
                 	.ENDM
                 
                 	.MACRO __SUBD1N
                 	SUBI R30,LOW(@0)
                 	SBCI R31,HIGH(@0)
                 	SBCI R22,BYTE3(@0)
                 	SBCI R23,BYTE4(@0)
                 	.ENDM
                 
                 	.MACRO __SUBD2N
                 	SUBI R26,LOW(@0)
                 	SBCI R27,HIGH(@0)
                 	SBCI R24,BYTE3(@0)
                 	SBCI R25,BYTE4(@0)
                 	.ENDM
                 
                 	.MACRO __ANDBMNN
                 	LDS  R30,@0+(@1)
                 	ANDI R30,LOW(@2)
                 	STS  @0+(@1),R30
                 	.ENDM
                 
                 	.MACRO __ANDWMNN
                 	LDS  R30,@0+(@1)
                 	ANDI R30,LOW(@2)
                 	STS  @0+(@1),R30
                 	LDS  R30,@0+(@1)+1
                 	ANDI R30,HIGH(@2)
                 	STS  @0+(@1)+1,R30
                 	.ENDM
                 
                 	.MACRO __ANDD1N
                 	ANDI R30,LOW(@0)
                 	ANDI R31,HIGH(@0)
                 	ANDI R22,BYTE3(@0)
                 	ANDI R23,BYTE4(@0)
                 	.ENDM
                 
                 	.MACRO __ANDD2N
                 	ANDI R26,LOW(@0)
                 	ANDI R27,HIGH(@0)
                 	ANDI R24,BYTE3(@0)
                 	ANDI R25,BYTE4(@0)
                 	.ENDM
                 
                 	.MACRO __ORBMNN
                 	LDS  R30,@0+(@1)
                 	ORI  R30,LOW(@2)
                 	STS  @0+(@1),R30
                 	.ENDM
                 
                 	.MACRO __ORWMNN
                 	LDS  R30,@0+(@1)
                 	ORI  R30,LOW(@2)
                 	STS  @0+(@1),R30
                 	LDS  R30,@0+(@1)+1
                 	ORI  R30,HIGH(@2)
                 	STS  @0+(@1)+1,R30
                 	.ENDM
                 
                 	.MACRO __ORD1N
                 	ORI  R30,LOW(@0)
                 	ORI  R31,HIGH(@0)
                 	ORI  R22,BYTE3(@0)
                 	ORI  R23,BYTE4(@0)
                 	.ENDM
                 
                 	.MACRO __ORD2N
                 	ORI  R26,LOW(@0)
                 	ORI  R27,HIGH(@0)
                 	ORI  R24,BYTE3(@0)
                 	ORI  R25,BYTE4(@0)
                 	.ENDM
                 
                 	.MACRO __DELAY_USB
                 	LDI  R24,LOW(@0)
                 __DELAY_USB_LOOP:
                 	DEC  R24
                 	BRNE __DELAY_USB_LOOP
                 	.ENDM
                 
                 	.MACRO __DELAY_USW
                 	LDI  R24,LOW(@0)
                 	LDI  R25,HIGH(@0)
                 __DELAY_USW_LOOP:
                 	SBIW R24,1
                 	BRNE __DELAY_USW_LOOP
                 	.ENDM
                 
                 	.MACRO __GETD1S
                 	LDD  R30,Y+@0
                 	LDD  R31,Y+@0+1
                 	LDD  R22,Y+@0+2
                 	LDD  R23,Y+@0+3
                 	.ENDM
                 
                 	.MACRO __GETD2S
                 	LDD  R26,Y+@0
                 	LDD  R27,Y+@0+1
                 	LDD  R24,Y+@0+2
                 	LDD  R25,Y+@0+3
                 	.ENDM
                 
                 	.MACRO __PUTD1S
                 	STD  Y+@0,R30
                 	STD  Y+@0+1,R31
                 	STD  Y+@0+2,R22
                 	STD  Y+@0+3,R23
                 	.ENDM
                 
                 	.MACRO __PUTD2S
                 	STD  Y+@0,R26
                 	STD  Y+@0+1,R27
                 	STD  Y+@0+2,R24
                 	STD  Y+@0+3,R25
                 	.ENDM
                 
                 	.MACRO __PUTDZ2
                 	STD  Z+@0,R26
                 	STD  Z+@0+1,R27
                 	STD  Z+@0+2,R24
                 	STD  Z+@0+3,R25
                 	.ENDM
                 
                 	.MACRO __CLRD1S
                 	STD  Y+@0,R30
                 	STD  Y+@0+1,R30
                 	STD  Y+@0+2,R30
                 	STD  Y+@0+3,R30
                 	.ENDM
                 
                 	.MACRO __POINTB1MN
                 	LDI  R30,LOW(@0+(@1))
                 	.ENDM
                 
                 	.MACRO __POINTW1MN
                 	LDI  R30,LOW(@0+(@1))
                 	LDI  R31,HIGH(@0+(@1))
                 	.ENDM
                 
                 	.MACRO __POINTD1M
                 	LDI  R30,LOW(@0)
                 	LDI  R31,HIGH(@0)
                 	LDI  R22,BYTE3(@0)
                 	LDI  R23,BYTE4(@0)
                 	.ENDM
                 
                 	.MACRO __POINTW1FN
                 	LDI  R30,LOW(2*@0+(@1))
                 	LDI  R31,HIGH(2*@0+(@1))
                 	.ENDM
                 
                 	.MACRO __POINTD1FN
                 	LDI  R30,LOW(2*@0+(@1))
                 	LDI  R31,HIGH(2*@0+(@1))
                 	LDI  R22,BYTE3(2*@0+(@1))
                 	LDI  R23,BYTE4(2*@0+(@1))
                 	.ENDM
                 
                 	.MACRO __POINTB2MN
                 	LDI  R26,LOW(@0+(@1))
                 	.ENDM
                 
                 	.MACRO __POINTW2MN
                 	LDI  R26,LOW(@0+(@1))
                 	LDI  R27,HIGH(@0+(@1))
                 	.ENDM
                 
                 	.MACRO __POINTW2FN
                 	LDI  R26,LOW(2*@0+(@1))
                 	LDI  R27,HIGH(2*@0+(@1))
                 	.ENDM
                 
                 	.MACRO __POINTD2FN
                 	LDI  R26,LOW(2*@0+(@1))
                 	LDI  R27,HIGH(2*@0+(@1))
                 	LDI  R24,BYTE3(2*@0+(@1))
                 	LDI  R25,BYTE4(2*@0+(@1))
                 	.ENDM
                 
                 	.MACRO __POINTBRM
                 	LDI  R@0,LOW(@1)
                 	.ENDM
                 
                 	.MACRO __POINTWRM
                 	LDI  R@0,LOW(@2)
                 	LDI  R@1,HIGH(@2)
                 	.ENDM
                 
                 	.MACRO __POINTBRMN
                 	LDI  R@0,LOW(@1+(@2))
                 	.ENDM
                 
                 	.MACRO __POINTWRMN
                 	LDI  R@0,LOW(@2+(@3))
                 	LDI  R@1,HIGH(@2+(@3))
                 	.ENDM
                 
                 	.MACRO __POINTWRFN
                 	LDI  R@0,LOW(@2*2+(@3))
                 	LDI  R@1,HIGH(@2*2+(@3))
                 	.ENDM
                 
                 	.MACRO __GETD1N
                 	LDI  R30,LOW(@0)
                 	LDI  R31,HIGH(@0)
                 	LDI  R22,BYTE3(@0)
                 	LDI  R23,BYTE4(@0)
                 	.ENDM
                 
                 	.MACRO __GETD2N
                 	LDI  R26,LOW(@0)
                 	LDI  R27,HIGH(@0)
                 	LDI  R24,BYTE3(@0)
                 	LDI  R25,BYTE4(@0)
                 	.ENDM
                 
                 	.MACRO __GETB1MN
                 	LDS  R30,@0+(@1)
                 	.ENDM
                 
                 	.MACRO __GETB1HMN
                 	LDS  R31,@0+(@1)
                 	.ENDM
                 
                 	.MACRO __GETW1MN
                 	LDS  R30,@0+(@1)
                 	LDS  R31,@0+(@1)+1
                 	.ENDM
                 
                 	.MACRO __GETD1MN
                 	LDS  R30,@0+(@1)
                 	LDS  R31,@0+(@1)+1
                 	LDS  R22,@0+(@1)+2
                 	LDS  R23,@0+(@1)+3
                 	.ENDM
                 
                 	.MACRO __GETBRMN
                 	LDS  R@0,@1+(@2)
                 	.ENDM
                 
                 	.MACRO __GETWRMN
                 	LDS  R@0,@2+(@3)
                 	LDS  R@1,@2+(@3)+1
                 	.ENDM
                 
                 	.MACRO __GETWRZ
                 	LDD  R@0,Z+@2
                 	LDD  R@1,Z+@2+1
                 	.ENDM
                 
                 	.MACRO __GETD2Z
                 	LDD  R26,Z+@0
                 	LDD  R27,Z+@0+1
                 	LDD  R24,Z+@0+2
                 	LDD  R25,Z+@0+3
                 	.ENDM
                 
                 	.MACRO __GETB2MN
                 	LDS  R26,@0+(@1)
                 	.ENDM
                 
                 	.MACRO __GETW2MN
                 	LDS  R26,@0+(@1)
                 	LDS  R27,@0+(@1)+1
                 	.ENDM
                 
                 	.MACRO __GETD2MN
                 	LDS  R26,@0+(@1)
                 	LDS  R27,@0+(@1)+1
                 	LDS  R24,@0+(@1)+2
                 	LDS  R25,@0+(@1)+3
                 	.ENDM
                 
                 	.MACRO __PUTB1MN
                 	STS  @0+(@1),R30
                 	.ENDM
                 
                 	.MACRO __PUTW1MN
                 	STS  @0+(@1),R30
                 	STS  @0+(@1)+1,R31
                 	.ENDM
                 
                 	.MACRO __PUTD1MN
                 	STS  @0+(@1),R30
                 	STS  @0+(@1)+1,R31
                 	STS  @0+(@1)+2,R22
                 	STS  @0+(@1)+3,R23
                 	.ENDM
                 
                 	.MACRO __PUTB1EN
                 	LDI  R26,LOW(@0+(@1))
                 	LDI  R27,HIGH(@0+(@1))
                 	CALL __EEPROMWRB
                 	.ENDM
                 
                 	.MACRO __PUTW1EN
                 	LDI  R26,LOW(@0+(@1))
                 	LDI  R27,HIGH(@0+(@1))
                 	CALL __EEPROMWRW
                 	.ENDM
                 
                 	.MACRO __PUTD1EN
                 	LDI  R26,LOW(@0+(@1))
                 	LDI  R27,HIGH(@0+(@1))
                 	CALL __EEPROMWRD
                 	.ENDM
                 
                 	.MACRO __PUTBR0MN
                 	STS  @0+(@1),R0
                 	.ENDM
                 
                 	.MACRO __PUTBMRN
                 	STS  @0+(@1),R@2
                 	.ENDM
                 
                 	.MACRO __PUTWMRN
                 	STS  @0+(@1),R@2
                 	STS  @0+(@1)+1,R@3
                 	.ENDM
                 
                 	.MACRO __PUTBZR
                 	STD  Z+@1,R@0
                 	.ENDM
                 
                 	.MACRO __PUTWZR
                 	STD  Z+@2,R@0
                 	STD  Z+@2+1,R@1
                 	.ENDM
                 
                 	.MACRO __GETW1R
                 	MOV  R30,R@0
                 	MOV  R31,R@1
                 	.ENDM
                 
                 	.MACRO __GETW2R
                 	MOV  R26,R@0
                 	MOV  R27,R@1
                 	.ENDM
                 
                 	.MACRO __GETWRN
                 	LDI  R@0,LOW(@2)
                 	LDI  R@1,HIGH(@2)
                 	.ENDM
                 
                 	.MACRO __PUTW1R
                 	MOV  R@0,R30
                 	MOV  R@1,R31
                 	.ENDM
                 
                 	.MACRO __PUTW2R
                 	MOV  R@0,R26
                 	MOV  R@1,R27
                 	.ENDM
                 
                 	.MACRO __ADDWRN
                 	SUBI R@0,LOW(-@2)
                 	SBCI R@1,HIGH(-@2)
                 	.ENDM
                 
                 	.MACRO __ADDWRR
                 	ADD  R@0,R@2
                 	ADC  R@1,R@3
                 	.ENDM
                 
                 	.MACRO __SUBWRN
                 	SUBI R@0,LOW(@2)
                 	SBCI R@1,HIGH(@2)
                 	.ENDM
                 
                 	.MACRO __SUBWRR
                 	SUB  R@0,R@2
                 	SBC  R@1,R@3
                 	.ENDM
                 
                 	.MACRO __ANDWRN
                 	ANDI R@0,LOW(@2)
                 	ANDI R@1,HIGH(@2)
                 	.ENDM
                 
                 	.MACRO __ANDWRR
                 	AND  R@0,R@2
                 	AND  R@1,R@3
                 	.ENDM
                 
                 	.MACRO __ORWRN
                 	ORI  R@0,LOW(@2)
                 	ORI  R@1,HIGH(@2)
                 	.ENDM
                 
                 	.MACRO __ORWRR
                 	OR   R@0,R@2
                 	OR   R@1,R@3
                 	.ENDM
                 
                 	.MACRO __EORWRR
                 	EOR  R@0,R@2
                 	EOR  R@1,R@3
                 	.ENDM
                 
                 	.MACRO __GETWRS
                 	LDD  R@0,Y+@2
                 	LDD  R@1,Y+@2+1
                 	.ENDM
                 
                 	.MACRO __PUTBSR
                 	STD  Y+@1,R@0
                 	.ENDM
                 
                 	.MACRO __PUTWSR
                 	STD  Y+@2,R@0
                 	STD  Y+@2+1,R@1
                 	.ENDM
                 
                 	.MACRO __MOVEWRR
                 	MOV  R@0,R@2
                 	MOV  R@1,R@3
                 	.ENDM
                 
                 	.MACRO __INWR
                 	IN   R@0,@2
                 	IN   R@1,@2+1
                 	.ENDM
                 
                 	.MACRO __OUTWR
                 	OUT  @2+1,R@1
                 	OUT  @2,R@0
                 	.ENDM
                 
                 	.MACRO __CALL1MN
                 	LDS  R30,@0+(@1)
                 	LDS  R31,@0+(@1)+1
                 	ICALL
                 	.ENDM
                 
                 	.MACRO __CALL1FN
                 	LDI  R30,LOW(2*@0+(@1))
                 	LDI  R31,HIGH(2*@0+(@1))
                 	CALL __GETW1PF
                 	ICALL
                 	.ENDM
                 
                 	.MACRO __CALL2EN
                 	PUSH R26
                 	PUSH R27
                 	LDI  R26,LOW(@0+(@1))
                 	LDI  R27,HIGH(@0+(@1))
                 	CALL __EEPROMRDW
                 	POP  R27
                 	POP  R26
                 	ICALL
                 	.ENDM
                 
                 	.MACRO __CALL2EX
                 	SUBI R26,LOW(-@0)
                 	SBCI R27,HIGH(-@0)
                 	CALL __EEPROMRDD
                 	ICALL
                 	.ENDM
                 
                 	.MACRO __GETW1STACK
                 	IN   R30,SPL
                 	IN   R31,SPH
                 	ADIW R30,@0+1
                 	LD   R0,Z+
                 	LD   R31,Z
                 	MOV  R30,R0
                 	.ENDM
                 
                 	.MACRO __GETD1STACK
                 	IN   R30,SPL
                 	IN   R31,SPH
                 	ADIW R30,@0+1
                 	LD   R0,Z+
                 	LD   R1,Z+
                 	LD   R22,Z
                 	MOVW R30,R0
                 	.ENDM
                 
                 	.MACRO __NBST
                 	BST  R@0,@1
                 	IN   R30,SREG
                 	LDI  R31,0x40
                 	EOR  R30,R31
                 	OUT  SREG,R30
                 	.ENDM
                 
                 
                 	.MACRO __PUTB1SN
                 	LDD  R26,Y+@0
                 	LDD  R27,Y+@0+1
                 	SUBI R26,LOW(-@1)
                 	SBCI R27,HIGH(-@1)
                 	ST   X,R30
                 	.ENDM
                 
                 	.MACRO __PUTW1SN
                 	LDD  R26,Y+@0
                 	LDD  R27,Y+@0+1
                 	SUBI R26,LOW(-@1)
                 	SBCI R27,HIGH(-@1)
                 	ST   X+,R30
                 	ST   X,R31
                 	.ENDM
                 
                 	.MACRO __PUTD1SN
                 	LDD  R26,Y+@0
                 	LDD  R27,Y+@0+1
                 	SUBI R26,LOW(-@1)
                 	SBCI R27,HIGH(-@1)
                 	CALL __PUTDP1
                 	.ENDM
                 
                 	.MACRO __PUTB1SNS
                 	LDD  R26,Y+@0
                 	LDD  R27,Y+@0+1
                 	ADIW R26,@1
                 	ST   X,R30
                 	.ENDM
                 
                 	.MACRO __PUTW1SNS
                 	LDD  R26,Y+@0
                 	LDD  R27,Y+@0+1
                 	ADIW R26,@1
                 	ST   X+,R30
                 	ST   X,R31
                 	.ENDM
                 
                 	.MACRO __PUTD1SNS
                 	LDD  R26,Y+@0
                 	LDD  R27,Y+@0+1
                 	ADIW R26,@1
                 	CALL __PUTDP1
                 	.ENDM
                 
                 	.MACRO __PUTB1PMN
                 	LDS  R26,@0
                 	LDS  R27,@0+1
                 	SUBI R26,LOW(-@1)
                 	SBCI R27,HIGH(-@1)
                 	ST   X,R30
                 	.ENDM
                 
                 	.MACRO __PUTW1PMN
                 	LDS  R26,@0
                 	LDS  R27,@0+1
                 	SUBI R26,LOW(-@1)
                 	SBCI R27,HIGH(-@1)
                 	ST   X+,R30
                 	ST   X,R31
                 	.ENDM
                 
                 	.MACRO __PUTD1PMN
                 	LDS  R26,@0
                 	LDS  R27,@0+1
                 	SUBI R26,LOW(-@1)
                 	SBCI R27,HIGH(-@1)
                 	CALL __PUTDP1
                 	.ENDM
                 
                 	.MACRO __PUTB1PMNS
                 	LDS  R26,@0
                 	LDS  R27,@0+1
                 	ADIW R26,@1
                 	ST   X,R30
                 	.ENDM
                 
                 	.MACRO __PUTW1PMNS
                 	LDS  R26,@0
                 	LDS  R27,@0+1
                 	ADIW R26,@1
                 	ST   X+,R30
                 	ST   X,R31
                 	.ENDM
                 
                 	.MACRO __PUTD1PMNS
                 	LDS  R26,@0
                 	LDS  R27,@0+1
                 	ADIW R26,@1
                 	CALL __PUTDP1
                 	.ENDM
                 
                 	.MACRO __PUTB1RN
                 	MOVW R26,R@0
                 	SUBI R26,LOW(-@1)
                 	SBCI R27,HIGH(-@1)
                 	ST   X,R30
                 	.ENDM
                 
                 	.MACRO __PUTW1RN
                 	MOVW R26,R@0
                 	SUBI R26,LOW(-@1)
                 	SBCI R27,HIGH(-@1)
                 	ST   X+,R30
                 	ST   X,R31
                 	.ENDM
                 
                 	.MACRO __PUTD1RN
                 	MOVW R26,R@0
                 	SUBI R26,LOW(-@1)
                 	SBCI R27,HIGH(-@1)
                 	CALL __PUTDP1
                 	.ENDM
                 
                 	.MACRO __PUTB1RNS
                 	MOVW R26,R@0
                 	ADIW R26,@1
                 	ST   X,R30
                 	.ENDM
                 
                 	.MACRO __PUTW1RNS
                 	MOVW R26,R@0
                 	ADIW R26,@1
                 	ST   X+,R30
                 	ST   X,R31
                 	.ENDM
                 
                 	.MACRO __PUTD1RNS
                 	MOVW R26,R@0
                 	ADIW R26,@1
                 	CALL __PUTDP1
                 	.ENDM
                 
                 	.MACRO __PUTB1RON
                 	MOV  R26,R@0
                 	MOV  R27,R@1
                 	SUBI R26,LOW(-@2)
                 	SBCI R27,HIGH(-@2)
                 	ST   X,R30
                 	.ENDM
                 
                 	.MACRO __PUTW1RON
                 	MOV  R26,R@0
                 	MOV  R27,R@1
                 	SUBI R26,LOW(-@2)
                 	SBCI R27,HIGH(-@2)
                 	ST   X+,R30
                 	ST   X,R31
                 	.ENDM
                 
                 	.MACRO __PUTD1RON
                 	MOV  R26,R@0
                 	MOV  R27,R@1
                 	SUBI R26,LOW(-@2)
                 	SBCI R27,HIGH(-@2)
                 	CALL __PUTDP1
                 	.ENDM
                 
                 	.MACRO __PUTB1RONS
                 	MOV  R26,R@0
                 	MOV  R27,R@1
                 	ADIW R26,@2
                 	ST   X,R30
                 	.ENDM
                 
                 	.MACRO __PUTW1RONS
                 	MOV  R26,R@0
                 	MOV  R27,R@1
                 	ADIW R26,@2
                 	ST   X+,R30
                 	ST   X,R31
                 	.ENDM
                 
                 	.MACRO __PUTD1RONS
                 	MOV  R26,R@0
                 	MOV  R27,R@1
                 	ADIW R26,@2
                 	CALL __PUTDP1
                 	.ENDM
                 
                 
                 	.MACRO __GETB1SX
                 	MOVW R30,R28
                 	SUBI R30,LOW(-@0)
                 	SBCI R31,HIGH(-@0)
                 	LD   R30,Z
                 	.ENDM
                 
                 	.MACRO __GETB1HSX
                 	MOVW R30,R28
                 	SUBI R30,LOW(-@0)
                 	SBCI R31,HIGH(-@0)
                 	LD   R31,Z
                 	.ENDM
                 
                 	.MACRO __GETW1SX
                 	MOVW R30,R28
                 	SUBI R30,LOW(-@0)
                 	SBCI R31,HIGH(-@0)
                 	LD   R0,Z+
                 	LD   R31,Z
                 	MOV  R30,R0
                 	.ENDM
                 
                 	.MACRO __GETD1SX
                 	MOVW R30,R28
                 	SUBI R30,LOW(-@0)
                 	SBCI R31,HIGH(-@0)
                 	LD   R0,Z+
                 	LD   R1,Z+
                 	LD   R22,Z+
                 	LD   R23,Z
                 	MOVW R30,R0
                 	.ENDM
                 
                 	.MACRO __GETB2SX
                 	MOVW R26,R28
                 	SUBI R26,LOW(-@0)
                 	SBCI R27,HIGH(-@0)
                 	LD   R26,X
                 	.ENDM
                 
                 	.MACRO __GETW2SX
                 	MOVW R26,R28
                 	SUBI R26,LOW(-@0)
                 	SBCI R27,HIGH(-@0)
                 	LD   R0,X+
                 	LD   R27,X
                 	MOV  R26,R0
                 	.ENDM
                 
                 	.MACRO __GETD2SX
                 	MOVW R26,R28
                 	SUBI R26,LOW(-@0)
                 	SBCI R27,HIGH(-@0)
                 	LD   R0,X+
                 	LD   R1,X+
                 	LD   R24,X+
                 	LD   R25,X
                 	MOVW R26,R0
                 	.ENDM
                 
                 	.MACRO __GETBRSX
                 	MOVW R30,R28
                 	SUBI R30,LOW(-@1)
                 	SBCI R31,HIGH(-@1)
                 	LD   R@0,Z
                 	.ENDM
                 
                 	.MACRO __GETWRSX
                 	MOVW R30,R28
                 	SUBI R30,LOW(-@2)
                 	SBCI R31,HIGH(-@2)
                 	LD   R@0,Z+
                 	LD   R@1,Z
                 	.ENDM
                 
                 	.MACRO __GETBRSX2
                 	MOVW R26,R28
                 	SUBI R26,LOW(-@1)
                 	SBCI R27,HIGH(-@1)
                 	LD   R@0,X
                 	.ENDM
                 
                 	.MACRO __GETWRSX2
                 	MOVW R26,R28
                 	SUBI R26,LOW(-@2)
                 	SBCI R27,HIGH(-@2)
                 	LD   R@0,X+
                 	LD   R@1,X
                 	.ENDM
                 
                 	.MACRO __LSLW8SX
                 	MOVW R30,R28
                 	SUBI R30,LOW(-@0)
                 	SBCI R31,HIGH(-@0)
                 	LD   R31,Z
                 	CLR  R30
                 	.ENDM
                 
                 	.MACRO __PUTB1SX
                 	MOVW R26,R28
                 	SUBI R26,LOW(-@0)
                 	SBCI R27,HIGH(-@0)
                 	ST   X,R30
                 	.ENDM
                 
                 	.MACRO __PUTW1SX
                 	MOVW R26,R28
                 	SUBI R26,LOW(-@0)
                 	SBCI R27,HIGH(-@0)
                 	ST   X+,R30
                 	ST   X,R31
                 	.ENDM
                 
                 	.MACRO __PUTD1SX
                 	MOVW R26,R28
                 	SUBI R26,LOW(-@0)
                 	SBCI R27,HIGH(-@0)
                 	ST   X+,R30
                 	ST   X+,R31
                 	ST   X+,R22
                 	ST   X,R23
                 	.ENDM
                 
                 	.MACRO __CLRW1SX
                 	MOVW R26,R28
                 	SUBI R26,LOW(-@0)
                 	SBCI R27,HIGH(-@0)
                 	ST   X+,R30
                 	ST   X,R30
                 	.ENDM
                 
                 	.MACRO __CLRD1SX
                 	MOVW R26,R28
                 	SUBI R26,LOW(-@0)
                 	SBCI R27,HIGH(-@0)
                 	ST   X+,R30
                 	ST   X+,R30
                 	ST   X+,R30
                 	ST   X,R30
                 	.ENDM
                 
                 	.MACRO __PUTB2SX
                 	MOVW R30,R28
                 	SUBI R30,LOW(-@0)
                 	SBCI R31,HIGH(-@0)
                 	ST   Z,R26
                 	.ENDM
                 
                 	.MACRO __PUTW2SX
                 	MOVW R30,R28
                 	SUBI R30,LOW(-@0)
                 	SBCI R31,HIGH(-@0)
                 	ST   Z+,R26
                 	ST   Z,R27
                 	.ENDM
                 
                 	.MACRO __PUTD2SX
                 	MOVW R30,R28
                 	SUBI R30,LOW(-@0)
                 	SBCI R31,HIGH(-@0)
                 	ST   Z+,R26
                 	ST   Z+,R27
                 	ST   Z+,R24
                 	ST   Z,R25
                 	.ENDM
                 
                 	.MACRO __PUTBSRX
                 	MOVW R30,R28
                 	SUBI R30,LOW(-@1)
                 	SBCI R31,HIGH(-@1)
                 	ST   Z,R@0
                 	.ENDM
                 
                 	.MACRO __PUTWSRX
                 	MOVW R30,R28
                 	SUBI R30,LOW(-@2)
                 	SBCI R31,HIGH(-@2)
                 	ST   Z+,R@0
                 	ST   Z,R@1
                 	.ENDM
                 
                 	.MACRO __PUTB1SNX
                 	MOVW R26,R28
                 	SUBI R26,LOW(-@0)
                 	SBCI R27,HIGH(-@0)
                 	LD   R0,X+
                 	LD   R27,X
                 	MOV  R26,R0
                 	SUBI R26,LOW(-@1)
                 	SBCI R27,HIGH(-@1)
                 	ST   X,R30
                 	.ENDM
                 
                 	.MACRO __PUTW1SNX
                 	MOVW R26,R28
                 	SUBI R26,LOW(-@0)
                 	SBCI R27,HIGH(-@0)
                 	LD   R0,X+
                 	LD   R27,X
                 	MOV  R26,R0
                 	SUBI R26,LOW(-@1)
                 	SBCI R27,HIGH(-@1)
                 	ST   X+,R30
                 	ST   X,R31
                 	.ENDM
                 
                 	.MACRO __PUTD1SNX
                 	MOVW R26,R28
                 	SUBI R26,LOW(-@0)
                 	SBCI R27,HIGH(-@0)
                 	LD   R0,X+
                 	LD   R27,X
                 	MOV  R26,R0
                 	SUBI R26,LOW(-@1)
                 	SBCI R27,HIGH(-@1)
                 	ST   X+,R30
                 	ST   X+,R31
                 	ST   X+,R22
                 	ST   X,R23
                 	.ENDM
                 
                 	.MACRO __MULBRR
                 	MULS R@0,R@1
                 	MOVW R30,R0
                 	.ENDM
                 
                 	.MACRO __MULBRRU
                 	MUL  R@0,R@1
                 	MOVW R30,R0
                 	.ENDM
                 
                 	.MACRO __MULBRR0
                 	MULS R@0,R@1
                 	.ENDM
                 
                 	.MACRO __MULBRRU0
                 	MUL  R@0,R@1
                 	.ENDM
                 
                 	.MACRO __MULBNWRU
                 	LDI  R26,@2
                 	MUL  R26,R@0
                 	MOVW R30,R0
                 	MUL  R26,R@1
                 	ADD  R31,R0
                 	.ENDM
                 
                 ;NAME DEFINITIONS FOR GLOBAL VARIABLES ALLOCATED TO REGISTERS
                 	.DEF _res=R3
                 	.DEF _nbytes=R4
                 	.DEF _nbytes_msb=R5
                 	.DEF _remain=R6
                 	.DEF _remain_msb=R7
                 	.DEF _b=R8
                 	.DEF _b_msb=R9
                 	.DEF _FPGA_TRACK_TIME=R2
                 	.DEF _allsec=R10
                 	.DEF _allsec_msb=R11
                 	.DEF _analyzing=R13
                 	.DEF _cnt_uart=R12
                 
                 ;GPIO0-GPIO15 INITIALIZATION VALUES
                 	.EQU __GPIO0_INIT=0x04
                 	.EQU __GPIO1_INIT=0x00
                 	.EQU __GPIO2_INIT=0x00
                 	.EQU __GPIO3_INIT=0x00
                 	.EQU __GPIO4_INIT=0x00
                 	.EQU __GPIO5_INIT=0x00
                 	.EQU __GPIO6_INIT=0x00
                 	.EQU __GPIO7_INIT=0x00
                 	.EQU __GPIO8_INIT=0x00
                 	.EQU __GPIO9_INIT=0x00
                 	.EQU __GPIO10_INIT=0x00
                 	.EQU __GPIO11_INIT=0x00
                 	.EQU __GPIO12_INIT=0x00
                 	.EQU __GPIO13_INIT=0x00
                 	.EQU __GPIO14_INIT=0x00
                 	.EQU __GPIO15_INIT=0x00
                 
                 ;GLOBAL REGISTER VARIABLES INITIALIZATION VALUES
                 	.EQU __R2_INIT=0x00
                 	.EQU __R3_INIT=0x00
                 	.EQU __R4_INIT=0x00
                 	.EQU __R5_INIT=0x00
                 	.EQU __R6_INIT=0x00
                 	.EQU __R7_INIT=0x00
                 	.EQU __R8_INIT=0x00
                 	.EQU __R9_INIT=0x00
                 	.EQU __R10_INIT=0x00
                 	.EQU __R11_INIT=0x00
                 	.EQU __R12_INIT=0x00
                 	.EQU __R13_INIT=0x00
                 	.EQU __R14_INIT=0x00
                 
                 	.CSEG
                 	.ORG 0x00
                 
                 ;START OF CODE MARKER
                 __START_OF_CODE:
                 
                 ;INTERRUPT VECTORS
000000 940c 0150 	JMP  __RESET
000002 940c 0000 	JMP  0x00
000004 940c 0000 	JMP  0x00
000006 940c 0000 	JMP  0x00
000008 940c 0000 	JMP  0x00
00000a 940c 0000 	JMP  0x00
00000c 940c 0000 	JMP  0x00
00000e 940c 0000 	JMP  0x00
000010 940c 0000 	JMP  0x00
000012 940c 0000 	JMP  0x00
000014 940c 020d 	JMP  _rtcxm_overflow_isr
000016 940c 0000 	JMP  0x00
000018 940c 0000 	JMP  0x00
00001a 940c 0000 	JMP  0x00
00001c 940c 0000 	JMP  0x00
00001e 940c 0000 	JMP  0x00
000020 940c 0000 	JMP  0x00
000022 940c 0000 	JMP  0x00
000024 940c 0000 	JMP  0x00
000026 940c 0000 	JMP  0x00
000028 940c 0000 	JMP  0x00
00002a 940c 0000 	JMP  0x00
00002c 940c 0000 	JMP  0x00
00002e 940c 0000 	JMP  0x00
000030 940c 0000 	JMP  0x00
000032 940c 0000 	JMP  0x00
000034 940c 0000 	JMP  0x00
000036 940c 0000 	JMP  0x00
000038 940c 0000 	JMP  0x00
00003a 940c 0000 	JMP  0x00
00003c 940c 0000 	JMP  0x00
00003e 940c 0000 	JMP  0x00
000040 940c 0000 	JMP  0x00
000042 940c 0000 	JMP  0x00
000044 940c 02c0 	JMP  _portb_int0_isr
000046 940c 0000 	JMP  0x00
000048 940c 0000 	JMP  0x00
00004a 940c 0000 	JMP  0x00
00004c 940c 0000 	JMP  0x00
00004e 940c 0000 	JMP  0x00
000050 940c 0000 	JMP  0x00
000052 940c 0000 	JMP  0x00
000054 940c 0000 	JMP  0x00
000056 940c 0000 	JMP  0x00
000058 940c 0000 	JMP  0x00
00005a 940c 0000 	JMP  0x00
00005c 940c 0000 	JMP  0x00
00005e 940c 0000 	JMP  0x00
000060 940c 0000 	JMP  0x00
000062 940c 0000 	JMP  0x00
000064 940c 0000 	JMP  0x00
000066 940c 0000 	JMP  0x00
000068 940c 0000 	JMP  0x00
00006a 940c 0000 	JMP  0x00
00006c 940c 0000 	JMP  0x00
00006e 940c 0000 	JMP  0x00
000070 940c 0000 	JMP  0x00
000072 940c 0000 	JMP  0x00
000074 940c 0000 	JMP  0x00
000076 940c 0000 	JMP  0x00
000078 940c 0000 	JMP  0x00
00007a 940c 0000 	JMP  0x00
00007c 940c 0000 	JMP  0x00
00007e 940c 0000 	JMP  0x00
000080 940c 0000 	JMP  0x00
000082 940c 0000 	JMP  0x00
000084 940c 0000 	JMP  0x00
000086 940c 0000 	JMP  0x00
000088 940c 0000 	JMP  0x00
00008a 940c 0000 	JMP  0x00
00008c 940c 0000 	JMP  0x00
00008e 940c 0000 	JMP  0x00
000090 940c 0000 	JMP  0x00
000092 940c 0000 	JMP  0x00
000094 940c 0000 	JMP  0x00
000096 940c 0000 	JMP  0x00
000098 940c 0000 	JMP  0x00
00009a 940c 0000 	JMP  0x00
00009c 940c 0000 	JMP  0x00
00009e 940c 0000 	JMP  0x00
0000a0 940c 0000 	JMP  0x00
0000a2 940c 0000 	JMP  0x00
0000a4 940c 0000 	JMP  0x00
0000a6 940c 0000 	JMP  0x00
0000a8 940c 0000 	JMP  0x00
0000aa 940c 0000 	JMP  0x00
0000ac 940c 0000 	JMP  0x00
0000ae 940c 0000 	JMP  0x00
0000b0 940c 0000 	JMP  0x00
0000b2 940c 0000 	JMP  0x00
0000b4 940c 0000 	JMP  0x00
0000b6 940c 0000 	JMP  0x00
0000b8 940c 0000 	JMP  0x00
0000ba 940c 0000 	JMP  0x00
0000bc 940c 0000 	JMP  0x00
0000be 940c 0000 	JMP  0x00
0000c0 940c 0000 	JMP  0x00
0000c2 940c 0000 	JMP  0x00
0000c4 940c 0000 	JMP  0x00
0000c6 940c 0000 	JMP  0x00
0000c8 940c 0000 	JMP  0x00
0000ca 940c 0000 	JMP  0x00
0000cc 940c 0000 	JMP  0x00
0000ce 940c 0000 	JMP  0x00
0000d0 940c 0000 	JMP  0x00
0000d2 940c 0000 	JMP  0x00
0000d4 940c 0000 	JMP  0x00
0000d6 940c 0000 	JMP  0x00
0000d8 940c 0000 	JMP  0x00
0000da 940c 0000 	JMP  0x00
0000dc 940c 0000 	JMP  0x00
0000de 940c 0000 	JMP  0x00
0000e0 940c 0000 	JMP  0x00
0000e2 940c 0000 	JMP  0x00
0000e4 940c 0000 	JMP  0x00
0000e6 940c 0000 	JMP  0x00
0000e8 940c 0000 	JMP  0x00
0000ea 940c 0000 	JMP  0x00
0000ec 940c 0000 	JMP  0x00
0000ee 940c 0000 	JMP  0x00
0000f0 940c 0000 	JMP  0x00
0000f2 940c 0000 	JMP  0x00
0000f4 940c 0000 	JMP  0x00
0000f6 940c 0000 	JMP  0x00
0000f8 940c 0000 	JMP  0x00
0000fa 940c 0000 	JMP  0x00
0000fc 940c 0000 	JMP  0x00
                 
                 _k1:
0000fe 2220
0000ff 2b2a
000100 5b2c
000101 5d3d      	.DB  0x20,0x22,0x2A,0x2B,0x2C,0x5B,0x3D,0x5D
000102 7f7c
C:\cvavr\SD multitrack package data ATXmega\Release\List\sdcard_e5.asm(1287): warning: .cseg .db misalignment - padding zero byte
000103 0000      	.DB  0x7C,0x7F,0x0
                 _vst_G101:
000104 0400
000105 0200
000106 0100
000107 0080      	.DB  0x0,0x4,0x0,0x2,0x0,0x1,0x80,0x0
000108 0040
000109 0020
00010a 0010
00010b 0008      	.DB  0x40,0x0,0x20,0x0,0x10,0x0,0x8,0x0
00010c 0004
00010d 0002
00010e 0000      	.DB  0x4,0x0,0x2,0x0,0x0,0x0
                 _cst_G101:
00010f 8000
000110 4000
000111 2000
000112 1000      	.DB  0x0,0x80,0x0,0x40,0x0,0x20,0x0,0x10
000113 0800
000114 4000
000115 2000
000116 1000      	.DB  0x0,0x8,0x0,0x40,0x0,0x20,0x0,0x10
000117 0800
000118 0400
000119 0200      	.DB  0x0,0x8,0x0,0x4,0x0,0x2
                 
                 _0x3:
00011a 3a30
00011b 442f
00011c 5356
00011d 312f      	.DB  0x30,0x3A,0x2F,0x44,0x56,0x53,0x2F,0x31
00011e 542f
00011f 6172
000120 6b63
000121 305f      	.DB  0x2F,0x54,0x72,0x61,0x63,0x6B,0x5F,0x30
000122 2e31
000123 6177
C:\cvavr\SD multitrack package data ATXmega\Release\List\sdcard_e5.asm(1300): warning: .cseg .db misalignment - padding zero byte
000124 0076      	.DB  0x31,0x2E,0x77,0x61,0x76
                 _0x2000003:
C:\cvavr\SD multitrack package data ATXmega\Release\List\sdcard_e5.asm(1302): warning: .cseg .db misalignment - padding zero byte
000125 0001      	.DB  0x1
                 _0x2020000:
000126 feeb
000127 4d90
000128 4453
000129 534f      	.DB  0xEB,0xFE,0x90,0x4D,0x53,0x44,0x4F,0x53
00012a 2e35
00012b 0030
00012c 4f4e
00012d 4e20      	.DB  0x35,0x2E,0x30,0x0,0x4E,0x4F,0x20,0x4E
00012e 4d41
00012f 2045
000130 2020
000131 4620      	.DB  0x41,0x4D,0x45,0x20,0x20,0x20,0x20,0x46
000132 5441
000133 3233
000134 2020
000135 0020      	.DB  0x41,0x54,0x33,0x32,0x20,0x20,0x20,0x0
000136 4f4e
000137 4e20
000138 4d41
000139 2045      	.DB  0x4E,0x4F,0x20,0x4E,0x41,0x4D,0x45,0x20
00013a 2020
00013b 4620
00013c 5441
00013d 2020      	.DB  0x20,0x20,0x20,0x46,0x41,0x54,0x20,0x20
00013e 2020
00013f 0020      	.DB  0x20,0x20,0x20,0x0
                 _0x2080060:
C:\cvavr\SD multitrack package data ATXmega\Release\List\sdcard_e5.asm(1312): warning: .cseg .db misalignment - padding zero byte
000140 0001      	.DB  0x1
                 _0x2080000:
000141 4e2d
000142 4e41
000143 4900
000144 464e      	.DB  0x2D,0x4E,0x41,0x4E,0x0,0x49,0x4E,0x46
C:\cvavr\SD multitrack package data ATXmega\Release\List\sdcard_e5.asm(1315): warning: .cseg .db misalignment - padding zero byte
000145 0000      	.DB  0x0
                 
                 __GLOBAL_INI_TBL:
000146 0015      	.DW  0x15
000147 286c      	.DW  _path
000148 0234      	.DW  _0x3*2
                 
000149 0001      	.DW  0x01
00014a 2ed0      	.DW  _status_G100
00014b 024a      	.DW  _0x2000003*2
                 
00014c 0001      	.DW  0x01
00014d 2ed9      	.DW  __seed_G104
00014e 0280      	.DW  _0x2080060*2
                 
                 _0xFFFFFFFF:
00014f 0000      	.DW  0
                 
                 #define __GLOBAL_INI_TBL_PRESENT 1
                 
                 __RESET:
000150 94f8      	CLI
000151 27ee      	CLR  R30
                 
                 ;MEMORY MAPPED EEPROM ACCESS IS USED
000152 91f0 01cc 	LDS  R31,NVM_CTRLB
000154 60f8      	ORI  R31,0x08
000155 93f0 01cc 	STS  NVM_CTRLB,R31
                 
                 ;INTERRUPT VECTORS ARE PLACED
                 ;AT THE START OF FLASH
000157 edf8      	LDI  R31,0xD8
000158 bff4      	OUT  CCP,R31
000159 93e0 00a2 	STS  PMIC_CTRL,R30
                 
                 ;CLEAR SRAM
00015b e080      	LDI  R24,LOW(__CLEAR_SRAM_SIZE)
00015c e190      	LDI  R25,HIGH(__CLEAR_SRAM_SIZE)
00015d e0a0      	LDI  R26,LOW(__SRAM_START)
00015e e2b0      	LDI  R27,HIGH(__SRAM_START)
                 __CLEAR_SRAM:
00015f 93ed      	ST   X+,R30
000160 9701      	SBIW R24,1
000161 f7e9      	BRNE __CLEAR_SRAM
                 
                 ;GLOBAL VARIABLES INITIALIZATION
000162 e8ec      	LDI  R30,LOW(__GLOBAL_INI_TBL*2)
000163 e0f2      	LDI  R31,HIGH(__GLOBAL_INI_TBL*2)
                 __GLOBAL_INI_NEXT:
000164 9185      	LPM  R24,Z+
000165 9195      	LPM  R25,Z+
000166 9700      	SBIW R24,0
000167 f061      	BREQ __GLOBAL_INI_END
000168 91a5      	LPM  R26,Z+
000169 91b5      	LPM  R27,Z+
00016a 9005      	LPM  R0,Z+
00016b 9015      	LPM  R1,Z+
00016c 01bf      	MOVW R22,R30
00016d 01f0      	MOVW R30,R0
                 __GLOBAL_INI_LOOP:
00016e 9005      	LPM  R0,Z+
00016f 920d      	ST   X+,R0
000170 9701      	SBIW R24,1
000171 f7e1      	BRNE __GLOBAL_INI_LOOP
000172 01fb      	MOVW R30,R22
000173 cff0      	RJMP __GLOBAL_INI_NEXT
                 __GLOBAL_INI_END:
                 
                 ;GPIO0-GPIO15 INITIALIZATION
000174 e0e4      	LDI  R30,__GPIO0_INIT
000175 b9e0      	OUT  GPIO0,R30
000176 e0e0      	LDI  R30,__GPIO1_INIT
000177 b9e1      	OUT  GPIO1,R30
                 	;__GPIO2_INIT = __GPIO1_INIT
000178 b9e2      	OUT  GPIO2,R30
                 	;__GPIO3_INIT = __GPIO1_INIT
000179 b9e3      	OUT  GPIO3,R30
                 	;__GPIO4_INIT = __GPIO1_INIT
00017a b9e4      	OUT  GPIO4,R30
                 	;__GPIO5_INIT = __GPIO1_INIT
00017b b9e5      	OUT  GPIO5,R30
                 	;__GPIO6_INIT = __GPIO1_INIT
00017c b9e6      	OUT  GPIO6,R30
                 	;__GPIO7_INIT = __GPIO1_INIT
00017d b9e7      	OUT  GPIO7,R30
                 	;__GPIO8_INIT = __GPIO1_INIT
00017e b9e8      	OUT  GPIO8,R30
                 	;__GPIO9_INIT = __GPIO1_INIT
00017f b9e9      	OUT  GPIO9,R30
                 	;__GPIO10_INIT = __GPIO1_INIT
000180 b9ea      	OUT  GPIO10,R30
                 	;__GPIO11_INIT = __GPIO1_INIT
000181 b9eb      	OUT  GPIO11,R30
                 	;__GPIO12_INIT = __GPIO1_INIT
000182 b9ec      	OUT  GPIO12,R30
                 	;__GPIO13_INIT = __GPIO1_INIT
000183 b9ed      	OUT  GPIO13,R30
                 	;__GPIO14_INIT = __GPIO1_INIT
000184 b9ee      	OUT  GPIO14,R30
                 	;__GPIO15_INIT = __GPIO1_INIT
000185 b9ef      	OUT  GPIO15,R30
                 
                 ;GLOBAL REGISTER VARIABLES INITIALIZATION
                 	;__R2_INIT = __GPIO1_INIT
000186 2e2e      	MOV  R2,R30
                 	;__R3_INIT = __GPIO1_INIT
000187 2e3e      	MOV  R3,R30
                 	;__R4_INIT = __GPIO1_INIT
000188 2e4e      	MOV  R4,R30
                 	;__R5_INIT = __GPIO1_INIT
000189 2e5e      	MOV  R5,R30
                 	;__R6_INIT = __GPIO1_INIT
00018a 2e6e      	MOV  R6,R30
                 	;__R7_INIT = __GPIO1_INIT
00018b 2e7e      	MOV  R7,R30
                 	;__R8_INIT = __GPIO1_INIT
00018c 2e8e      	MOV  R8,R30
                 	;__R9_INIT = __GPIO1_INIT
00018d 2e9e      	MOV  R9,R30
                 	;__R10_INIT = __GPIO1_INIT
00018e 2eae      	MOV  R10,R30
                 	;__R11_INIT = __GPIO1_INIT
00018f 2ebe      	MOV  R11,R30
                 	;__R12_INIT = __GPIO1_INIT
000190 2ece      	MOV  R12,R30
                 	;__R13_INIT = __GPIO1_INIT
000191 2ede      	MOV  R13,R30
                 
                 ;HARDWARE STACK POINTER INITIALIZATION
000192 efef      	LDI  R30,LOW(__SRAM_END-__HEAP_SIZE)
000193 bfed      	OUT  SPL,R30
000194 e2ef      	LDI  R30,HIGH(__SRAM_END-__HEAP_SIZE)
000195 bfee      	OUT  SPH,R30
                 
                 ;DATA STACK POINTER INITIALIZATION
000196 e0c0      	LDI  R28,LOW(__SRAM_START+__DSTACK_SIZE)
000197 e2d4      	LDI  R29,HIGH(__SRAM_START+__DSTACK_SIZE)
                 
000198 940c 02e4 	JMP  _main
                 
                 	.ESEG
                 	.ORG 0
                 
                 	.DSEG
                 	.ORG 0x2400
                 
                 	.CSEG
                 ;#if __CODEVISIONAVR__ < 3090
                 ;#error This example requires CodeVisionAVR V3.09 or later
                 ;#endif
                 ;
                 ;#include <io.h>
                 ;#include <ff.h>
                 ;#include <delay.h>
                 ;#include <math.h>
                 ;//#include <stdio.h>
                 ;
                 ;#define SET_B(x) |= (1<<x)  //  X  "1"
                 ;#define CLR_B(x) &=~(1<<x)  //  X  "0"
                 ;#define INV_B(x) ^=(1<<x)   //  X
                 ;
                 ;FRESULT res;
                 ;FATFS fat;
                 ;FIL file;
                 ;FILINFO finfo;
                 ;
                 ;/* file path */
                 ;char path[]="0:/DVS/1/Track_01.wav";
                 
                 	.DSEG
                 ;
                 ;unsigned int nbytes;
                 ;unsigned char buffer_1[1536];
                 ;unsigned char FROM_SD[4];
                 ;unsigned char FROM_FPGA[4];
                 ;unsigned char SEND[6];               //    STM
                 ;unsigned char WFM[64];               //   WaveForm  STM
                 ;unsigned int remain;
                 ;unsigned int b;
                 ;bit play = 0;                         //   play=1 - 
                 ;unsigned long flength;
                 ;bit stt = 0;                          //       /
                 ;bit nxt = 1;                          //      
                 ;bit fldr = 0;                         //    (/)
                 ;unsigned char FPGA_TRACK_TIME = 0;    //     FPGA
                 ;unsigned int allsec = 0;               //     
                 ;unsigned char analyzing=0;
                 ;unsigned char cnt_uart=0;              //   UART
                 ;
                 ;
                 ;// System clocks initialization
                 ;void system_clocks_init(void)
                 ; 0000 002C {
                 
                 	.CSEG
                 _system_clocks_init:
                 ; .FSTART _system_clocks_init
                 ; 0000 002D unsigned char n,s;
                 ; 0000 002E 
                 ; 0000 002F // Optimize for speed
                 ; 0000 0030 #pragma optsize-
                 ; 0000 0031 // Save interrupts enabled/disabled state
                 ; 0000 0032 s=SREG;
00019a 931a      	ST   -Y,R17
00019b 930a      	ST   -Y,R16
                 ;	n -> R17
                 ;	s -> R16
00019c b70f      	IN   R16,63
                 ; 0000 0033 // Disable interrupts
                 ; 0000 0034 #asm("cli")
00019d 94f8      	cli
                 ; 0000 0035 
                 ; 0000 0036 // External 16000,000 kHz oscillator initialization
                 ; 0000 0037 // Crystal oscillator increased drive current: On
                 ; 0000 0038 // External Clock Source - Startup Time: 0.4-16 MHz Quartz Crystal - 16k CLK
                 ; 0000 0039 OSC.XOSCCTRL=OSC_FRQRANGE_12TO16_gc | OSC_XOSCPWR_bm | OSC_XOSCSEL_XTAL_16KCLK_gc;
00019e edeb      	LDI  R30,LOW(219)
00019f 93e0 0052 	STS  82,R30
                 ; 0000 003A // Enable the external oscillator/clock source
                 ; 0000 003B OSC.CTRL|=OSC_XOSCEN_bm;
0001a1 91e0 0050 	LDS  R30,80
0001a3 60e8      	ORI  R30,8
0001a4 93e0 0050 	STS  80,R30
                 ; 0000 003C 
                 ; 0000 003D // Wait for the external oscillator to stabilize
                 ; 0000 003E while ((OSC.STATUS & OSC_XOSCRDY_bm)==0);
                 _0x4:
0001a6 91e0 0051 	LDS  R30,81
0001a8 70e8      	ANDI R30,LOW(0x8)
0001a9 f3e1      	BREQ _0x4
                 ; 0000 003F 
                 ; 0000 0040 // PLL initialization
                 ; 0000 0041 // PLL clock source: External Osc. or Clock
                 ; 0000 0042 // PLL multiplication factor: 2
                 ; 0000 0043 // PLL output/2: Off
                 ; 0000 0044 // PLL frequency: 32,000000 MHz
                 ; 0000 0045 // Set the PLL clock source and multiplication factor
                 ; 0000 0046 n=(OSC.PLLCTRL & (~(OSC_PLLSRC_gm | OSC_PLLDIV_bm | OSC_PLLFAC_gm))) |
                 ; 0000 0047 	OSC_PLLSRC_XOSC_gc | (0<<OSC_PLLDIV_bp) | 2;
0001aa 91e0 0055 	LDS  R30,85
0001ac 70e0      	ANDI R30,LOW(0x0)
0001ad 6ce0      	ORI  R30,LOW(0xC0)
0001ae 60e2      	ORI  R30,2
0001af 2f1e      	MOV  R17,R30
                 ; 0000 0048 CCP=CCP_IOREG_gc;
0001b0 ede8      	LDI  R30,LOW(216)
0001b1 bfe4      	OUT  0x34,R30
                 ; 0000 0049 OSC.PLLCTRL=n;
0001b2 9310 0055 	STS  85,R17
                 ; 0000 004A // Enable the PLL
                 ; 0000 004B OSC.CTRL|=OSC_PLLEN_bm;
0001b4 91e0 0050 	LDS  R30,80
0001b6 61e0      	ORI  R30,0x10
0001b7 93e0 0050 	STS  80,R30
                 ; 0000 004C 
                 ; 0000 004D // System Clock prescaler A division factor: 1
                 ; 0000 004E // System Clock prescalers B & C division factors: B:1, C:1
                 ; 0000 004F // ClkPer4: 32000,000 kHz
                 ; 0000 0050 // ClkPer2: 32000,000 kHz
                 ; 0000 0051 // ClkPer:  32000,000 kHz
                 ; 0000 0052 // ClkCPU:  32000,000 kHz
                 ; 0000 0053 n=(CLK.PSCTRL & (~(CLK_PSADIV_gm | CLK_PSBCDIV1_bm | CLK_PSBCDIV0_bm))) |
                 ; 0000 0054 	CLK_PSADIV_1_gc | CLK_PSBCDIV_1_1_gc;
0001b9 91e0 0041 	LDS  R30,65
0001bb 78e0      	ANDI R30,LOW(0x80)
0001bc 2f1e      	MOV  R17,R30
                 ; 0000 0055 CCP=CCP_IOREG_gc;
0001bd ede8      	LDI  R30,LOW(216)
0001be bfe4      	OUT  0x34,R30
                 ; 0000 0056 CLK.PSCTRL=n;
0001bf 9310 0041 	STS  65,R17
                 ; 0000 0057 
                 ; 0000 0058 // Wait for the PLL to stabilize
                 ; 0000 0059 while ((OSC.STATUS & OSC_PLLRDY_bm)==0);
                 _0x7:
0001c1 91e0 0051 	LDS  R30,81
0001c3 71e0      	ANDI R30,LOW(0x10)
0001c4 f3e1      	BREQ _0x7
                 ; 0000 005A 
                 ; 0000 005B // Select the system clock source: Phase Locked Loop
                 ; 0000 005C n=(CLK.CTRL & (~CLK_SCLKSEL_gm)) | CLK_SCLKSEL_PLL_gc;
0001c5 91e0 0040 	LDS  R30,64
0001c7 7fe8      	ANDI R30,LOW(0xF8)
0001c8 60e4      	ORI  R30,4
0001c9 2f1e      	MOV  R17,R30
                 ; 0000 005D CCP=CCP_IOREG_gc;
0001ca ede8      	LDI  R30,LOW(216)
0001cb bfe4      	OUT  0x34,R30
                 ; 0000 005E CLK.CTRL=n;
0001cc 9310 0040 	STS  64,R17
                 ; 0000 005F 
                 ; 0000 0060 // Disable the unused oscillators: 2 MHz, 32 MHz, internal 32 kHz
                 ; 0000 0061 OSC.CTRL&= ~(OSC_RC2MEN_bm | OSC_RC32MEN_bm | OSC_RC32KEN_bm);
0001ce 91e0 0050 	LDS  R30,80
0001d0 7fe8      	ANDI R30,LOW(0xF8)
0001d1 93e0 0050 	STS  80,R30
                 ; 0000 0062 
                 ; 0000 0063 // ClkPer output disabled
                 ; 0000 0064 PORTCFG.CLKEVOUT&= ~(PORTCFG_CLKOUTSEL_gm | PORTCFG_CLKOUT_gm);
0001d3 91e0 00b4 	LDS  R30,180
0001d5 7fe0      	ANDI R30,LOW(0xF0)
0001d6 93e0 00b4 	STS  180,R30
                 ; 0000 0065 // Restore interrupts enabled/disabled state
                 ; 0000 0066 SREG=s;
0001d8 bf0f      	OUT  0x3F,R16
                 ; 0000 0067 // Restore optimization for size if needed
                 ; 0000 0068 #pragma optsize_default
                 ; 0000 0069 }
0001d9 9109      	LD   R16,Y+
0001da 9119      	LD   R17,Y+
0001db 9508      	RET
                 ; .FEND
                 ;
                 ;// RTC initialization
                 ;void rtcxm_init(void)
                 ; 0000 006D {
                 _rtcxm_init:
                 ; .FSTART _rtcxm_init
                 ; 0000 006E unsigned char s;
                 ; 0000 006F 
                 ; 0000 0070 // RTC clock source: 32.768 kHz from internal RC Oscillator
                 ; 0000 0071 // Select the clock source and enable the RTC clock
                 ; 0000 0072 CLK.RTCCTRL=(CLK.RTCCTRL & (~CLK_RTCSRC_gm)) | CLK_RTCSRC_RCOSC32_gc | CLK_RTCEN_bm;
0001dc 931a      	ST   -Y,R17
                 ;	s -> R17
0001dd 91e0 0043 	LDS  R30,67
0001df 7fe1      	ANDI R30,LOW(0xF1)
0001e0 60ed      	ORI  R30,LOW(0xD)
0001e1 93e0 0043 	STS  67,R30
                 ; 0000 0073 // Make sure that the RTC is stopped before initializing it
                 ; 0000 0074 RTC.CTRL=(RTC.CTRL & (~RTC_PRESCALER_gm)) | RTC_PRESCALER_OFF_gc;
0001e3 91e0 0400 	LDS  R30,1024
0001e5 7fe8      	ANDI R30,LOW(0xF8)
0001e6 93e0 0400 	STS  1024,R30
                 ; 0000 0075 // Optimize for speed
                 ; 0000 0076 #pragma optsize-
                 ; 0000 0077 // Save interrupts enabled/disabled state
                 ; 0000 0078 s=SREG;
0001e8 b71f      	IN   R17,63
                 ; 0000 0079 // Disable interrupts
                 ; 0000 007A #asm("cli")
0001e9 94f8      	cli
                 ; 0000 007B while (RTC.STATUS & RTC_SYNCBUSY_bm);
                 _0xA:
0001ea 91e0 0401 	LDS  R30,1025
0001ec 70e1      	ANDI R30,LOW(0x1)
0001ed f7e1      	BRNE _0xA
                 ; 0000 007C RTC.PER=0x0148;
0001ee e4e8      	LDI  R30,LOW(328)
0001ef e0f1      	LDI  R31,HIGH(328)
0001f0 93e0 040a 	STS  1034,R30
0001f2 93f0 040b 	STS  1034+1,R31
                 ; 0000 007D RTC.CNT=0x0000;
0001f4 e0e0      	LDI  R30,LOW(0)
0001f5 e0f0      	LDI  R31,HIGH(0)
0001f6 93e0 0408 	STS  1032,R30
0001f8 93f0 0409 	STS  1032+1,R31
                 ; 0000 007E RTC.COMP=0x0000;
0001fa 93e0 040c 	STS  1036,R30
0001fc 93f0 040d 	STS  1036+1,R31
                 ; 0000 007F SREG=s;
0001fe bf1f      	OUT  0x3F,R17
                 ; 0000 0080 #pragma optsize_default
                 ; 0000 0081 RTC.CTRL=(RTC.CTRL & (~RTC_PRESCALER_gm)) | RTC_PRESCALER_DIV1_gc;
0001ff 91e0 0400 	LDS  R30,1024
000201 7fe8      	ANDI R30,LOW(0xF8)
000202 60e1      	ORI  R30,1
000203 93e0 0400 	STS  1024,R30
                 ; 0000 0082 RTC.INTCTRL=(RTC.INTCTRL & (~(RTC_OVFINTLVL_gm | RTC_COMPINTLVL_gm))) |
                 ; 0000 0083     RTC_OVFINTLVL_LO_gc | RTC_COMPINTLVL_OFF_gc;
000205 91e0 0402 	LDS  R30,1026
000207 7fe0      	ANDI R30,LOW(0xF0)
000208 60e1      	ORI  R30,1
000209 93e0 0402 	STS  1026,R30
                 ; 0000 0084 }
00020b 9119      	LD   R17,Y+
00020c 9508      	RET
                 ; .FEND
                 ;
                 ;// RTC overflow interrupt service routine every 10ms
                 ;interrupt [RTC_OVF_vect] void rtcxm_overflow_isr(void)
                 ; 0000 0088 {
                 _rtcxm_overflow_isr:
                 ; .FSTART _rtcxm_overflow_isr
00020d 920a      	ST   -Y,R0
00020e 921a      	ST   -Y,R1
00020f 92fa      	ST   -Y,R15
000210 936a      	ST   -Y,R22
000211 937a      	ST   -Y,R23
000212 938a      	ST   -Y,R24
000213 939a      	ST   -Y,R25
000214 93aa      	ST   -Y,R26
000215 93ba      	ST   -Y,R27
000216 93ea      	ST   -Y,R30
000217 93fa      	ST   -Y,R31
000218 b7ef      	IN   R30,SREG
000219 93ea      	ST   -Y,R30
                 ; 0000 0089 disk_timerproc(); // SD card access low level timing function
00021a 940e 0ac2 	CALL _disk_timerproc
                 ; 0000 008A }
00021c 91e9      	LD   R30,Y+
00021d bfef      	OUT  SREG,R30
00021e 91f9      	LD   R31,Y+
00021f 91e9      	LD   R30,Y+
000220 91b9      	LD   R27,Y+
000221 91a9      	LD   R26,Y+
000222 9199      	LD   R25,Y+
000223 9189      	LD   R24,Y+
000224 9179      	LD   R23,Y+
000225 9169      	LD   R22,Y+
000226 90f9      	LD   R15,Y+
000227 9019      	LD   R1,Y+
000228 9009      	LD   R0,Y+
000229 9518      	RETI
                 ; .FEND
                 ;
                 ;// Ports initialization
                 ;void ports_init(void)
                 ; 0000 008E {
                 _ports_init:
                 ; .FSTART _ports_init
                 ; 0000 008F // PORTB initialization
                 ; 0000 0090 // OUT register
                 ; 0000 0091 PORTB.OUT=0x00;
00022a e0e0      	LDI  R30,LOW(0)
00022b 93e0 0624 	STS  1572,R30
                 ; 0000 0092 // Pin0: Output
                 ; 0000 0093 // Pin1: Output
                 ; 0000 0094 // Pin2: Input
                 ; 0000 0095 // Pin3: Input
                 ; 0000 0096 PORTB.DIR=0x03;
00022d e0e3      	LDI  R30,LOW(3)
00022e 93e0 0620 	STS  1568,R30
                 ; 0000 0097 // Pin0 Output/Pull configuration: Totempole/No
                 ; 0000 0098 // Pin0 Input/Sense configuration: Sense both edges
                 ; 0000 0099 // Pin0 Inverted: Off
                 ; 0000 009A // Pin0 Slew Rate Limitation: Off
                 ; 0000 009B PORTB.PIN0CTRL=PORT_OPC_TOTEM_gc | PORT_ISC_BOTHEDGES_gc;
000230 e0e0      	LDI  R30,LOW(0)
000231 93e0 0630 	STS  1584,R30
                 ; 0000 009C // Pin1 Output/Pull configuration: Totempole/No
                 ; 0000 009D // Pin1 Input/Sense configuration: Sense both edges
                 ; 0000 009E // Pin1 Inverted: Off
                 ; 0000 009F // Pin1 Slew Rate Limitation: Off
                 ; 0000 00A0 PORTB.PIN1CTRL=PORT_OPC_TOTEM_gc | PORT_ISC_BOTHEDGES_gc;
000233 93e0 0631 	STS  1585,R30
                 ; 0000 00A1 // Pin2 Output/Pull configuration: Totempole/Pull-up (on input)
                 ; 0000 00A2 // Pin2 Input/Sense configuration: Sense both edges
                 ; 0000 00A3 // Pin2 Inverted: Off
                 ; 0000 00A4 // Pin2 Slew Rate Limitation: Off
                 ; 0000 00A5 PORTB.PIN2CTRL=PORT_OPC_PULLUP_gc | PORT_ISC_BOTHEDGES_gc;
000235 e1e8      	LDI  R30,LOW(24)
000236 93e0 0632 	STS  1586,R30
                 ; 0000 00A6 // Pin3 Output/Pull configuration: Totempole/No
                 ; 0000 00A7 // Pin3 Input/Sense configuration: Sense rising edge
                 ; 0000 00A8 // Pin3 Inverted: Off
                 ; 0000 00A9 // Pin3 Slew Rate Limitation: Off
                 ; 0000 00AA PORTB.PIN3CTRL=PORT_OPC_TOTEM_gc | PORT_ISC_RISING_gc;
000238 e0e1      	LDI  R30,LOW(1)
000239 93e0 0633 	STS  1587,R30
                 ; 0000 00AB // Interrupt 0 level: High
                 ; 0000 00AC // Interrupt 1 level: Disabled
                 ; 0000 00AD PORTB.INTCTRL=(PORTB.INTCTRL & (~(PORT_INT1LVL_gm | PORT_INT0LVL_gm))) |
                 ; 0000 00AE     PORT_INT1LVL_OFF_gc | PORT_INT0LVL_HI_gc;
00023b 91e0 0629 	LDS  R30,1577
00023d 7fe0      	ANDI R30,LOW(0xF0)
00023e 60e3      	ORI  R30,LOW(0x3)
00023f 93e0 0629 	STS  1577,R30
                 ; 0000 00AF // Pin0 Pin Change interrupt 0: Off
                 ; 0000 00B0 // Pin1 Pin Change interrupt 0: Off
                 ; 0000 00B1 // Pin2 Pin Change interrupt 0: Off
                 ; 0000 00B2 // Pin3 Pin Change interrupt 0: On
                 ; 0000 00B3 //PORTB.INT0MASK=0x08;
                 ; 0000 00B4 PORTB.INT0MASK=0x00;
000241 e0e0      	LDI  R30,LOW(0)
000242 93e0 062a 	STS  1578,R30
                 ; 0000 00B5 PORTB.INT1MASK=0x00;
000244 93e0 062b 	STS  1579,R30
                 ; 0000 00B6 
                 ; 0000 00B7 
                 ; 0000 00B8 // PORTC initialization
                 ; 0000 00B9 // OUT register
                 ; 0000 00BA PORTC.OUT=0x00;
000246 93e0 0644 	STS  1604,R30
                 ; 0000 00BB // Pin0: Input
                 ; 0000 00BC // Pin1: Input
                 ; 0000 00BD // Pin2: Input
                 ; 0000 00BE // Pin3: Input
                 ; 0000 00BF // Pin4: Input
                 ; 0000 00C0 // Pin5: Input
                 ; 0000 00C1 // Pin6: Input
                 ; 0000 00C2 // Pin7: Input
                 ; 0000 00C3 PORTC.DIR=0x00;
000248 93e0 0640 	STS  1600,R30
                 ; 0000 00C4 // Pin0 Output/Pull configuration: Totempole/Pull-down (on input)
                 ; 0000 00C5 // Pin0 Input/Sense configuration: Sense both edges
                 ; 0000 00C6 // Pin0 Inverted: Off
                 ; 0000 00C7 // Pin0 Slew Rate Limitation: Off
                 ; 0000 00C8 PORTC.PIN0CTRL=PORT_OPC_PULLDOWN_gc | PORT_ISC_BOTHEDGES_gc;
00024a e1e0      	LDI  R30,LOW(16)
00024b 93e0 0650 	STS  1616,R30
                 ; 0000 00C9 // Pin1 Output/Pull configuration: Totempole/Pull-down (on input)
                 ; 0000 00CA // Pin1 Input/Sense configuration: Sense both edges
                 ; 0000 00CB // Pin1 Inverted: Off
                 ; 0000 00CC // Pin1 Slew Rate Limitation: Off
                 ; 0000 00CD PORTC.PIN1CTRL=PORT_OPC_PULLDOWN_gc | PORT_ISC_BOTHEDGES_gc;
00024d 93e0 0651 	STS  1617,R30
                 ; 0000 00CE // Pin2 Output/Pull configuration: Totempole/Pull-down (on input)
                 ; 0000 00CF // Pin2 Input/Sense configuration: Sense both edges
                 ; 0000 00D0 // Pin2 Inverted: Off
                 ; 0000 00D1 // Pin2 Slew Rate Limitation: Off
                 ; 0000 00D2 PORTC.PIN2CTRL=PORT_OPC_PULLDOWN_gc | PORT_ISC_BOTHEDGES_gc;
00024f 93e0 0652 	STS  1618,R30
                 ; 0000 00D3 // Pin3 Output/Pull configuration: Totempole/Pull-down (on input)
                 ; 0000 00D4 // Pin3 Input/Sense configuration: Sense both edges
                 ; 0000 00D5 // Pin3 Inverted: Off
                 ; 0000 00D6 // Pin3 Slew Rate Limitation: Off
                 ; 0000 00D7 PORTC.PIN3CTRL=PORT_OPC_PULLDOWN_gc | PORT_ISC_BOTHEDGES_gc;
000251 93e0 0653 	STS  1619,R30
                 ; 0000 00D8 // Pin4 Output/Pull configuration: Totempole/No
                 ; 0000 00D9 // Pin4 Input/Sense configuration: Sense both edges
                 ; 0000 00DA // Pin4 Inverted: Off
                 ; 0000 00DB // Pin4 Slew Rate Limitation: Off
                 ; 0000 00DC PORTC.PIN4CTRL=PORT_OPC_TOTEM_gc | PORT_ISC_BOTHEDGES_gc;
000253 e0e0      	LDI  R30,LOW(0)
000254 93e0 0654 	STS  1620,R30
                 ; 0000 00DD // Pin5 Output/Pull configuration: Totempole/No
                 ; 0000 00DE // Pin5 Input/Sense configuration: Sense both edges
                 ; 0000 00DF // Pin5 Inverted: Off
                 ; 0000 00E0 // Pin5 Slew Rate Limitation: Off
                 ; 0000 00E1 PORTC.PIN5CTRL=PORT_OPC_TOTEM_gc | PORT_ISC_BOTHEDGES_gc;
000256 93e0 0655 	STS  1621,R30
                 ; 0000 00E2 // Pin6 Output/Pull configuration: Totempole/No
                 ; 0000 00E3 // Pin6 Input/Sense configuration: Sense both edges
                 ; 0000 00E4 // Pin6 Inverted: Off
                 ; 0000 00E5 // Pin6 Slew Rate Limitation: Off
                 ; 0000 00E6 PORTC.PIN6CTRL=PORT_OPC_TOTEM_gc | PORT_ISC_BOTHEDGES_gc;
000258 93e0 0656 	STS  1622,R30
                 ; 0000 00E7 // Pin7 Output/Pull configuration: Totempole/No
                 ; 0000 00E8 // Pin7 Input/Sense configuration: Sense both edges
                 ; 0000 00E9 // Pin7 Inverted: Off
                 ; 0000 00EA // Pin7 Slew Rate Limitation: Off
                 ; 0000 00EB PORTC.PIN7CTRL=PORT_OPC_TOTEM_gc | PORT_ISC_BOTHEDGES_gc;
00025a 93e0 0657 	STS  1623,R30
                 ; 0000 00EC // PORTC Peripheral Output Remapping
                 ; 0000 00ED // OC0A Output: Pin 0
                 ; 0000 00EE // OC0B Output: Pin 1
                 ; 0000 00EF // OC0C Output: Pin 2
                 ; 0000 00F0 // OC0D Output: Pin 3
                 ; 0000 00F1 // USART0 XCK: Pin 1
                 ; 0000 00F2 // USART0 RXD: Pin 2
                 ; 0000 00F3 // USART0 TXD: Pin 3
                 ; 0000 00F4 // SPI MOSI: Pin 5
                 ; 0000 00F5 // SPI SCK: Pin 7
                 ; 0000 00F6 PORTC.REMAP=(0<<PORT_SPI_bp) | (0<<PORT_USART0_bp) | (0<<PORT_TC0D_bp) | (0<<PORT_TC0C_bp) | (0<<PORT_TC0B_bp) | (0<<POR ...
00025c 93e0 064e 	STS  1614,R30
                 ; 0000 00F7 // Interrupt 0 level: Disabled
                 ; 0000 00F8 // Interrupt 1 level: Disabled
                 ; 0000 00F9 PORTC.INTCTRL=(PORTC.INTCTRL & (~(PORT_INT1LVL_gm | PORT_INT0LVL_gm))) |
                 ; 0000 00FA 	PORT_INT1LVL_OFF_gc | PORT_INT0LVL_OFF_gc;
00025e 91e0 0649 	LDS  R30,1609
000260 7fe0      	ANDI R30,LOW(0xF0)
000261 93e0 0649 	STS  1609,R30
                 ; 0000 00FB // Pin0 Pin Change interrupt 0: Off
                 ; 0000 00FC // Pin1 Pin Change interrupt 0: Off
                 ; 0000 00FD // Pin2 Pin Change interrupt 0: Off
                 ; 0000 00FE // Pin3 Pin Change interrupt 0: Off
                 ; 0000 00FF // Pin4 Pin Change interrupt 0: Off
                 ; 0000 0100 // Pin5 Pin Change interrupt 0: Off
                 ; 0000 0101 // Pin6 Pin Change interrupt 0: Off
                 ; 0000 0102 // Pin7 Pin Change interrupt 0: Off
                 ; 0000 0103 PORTC.INT0MASK=0x00;
000263 e0e0      	LDI  R30,LOW(0)
000264 93e0 064a 	STS  1610,R30
                 ; 0000 0104 // Pin0 Pin Change interrupt 1: Off
                 ; 0000 0105 // Pin1 Pin Change interrupt 1: Off
                 ; 0000 0106 // Pin2 Pin Change interrupt 1: Off
                 ; 0000 0107 // Pin3 Pin Change interrupt 1: Off
                 ; 0000 0108 // Pin4 Pin Change interrupt 1: Off
                 ; 0000 0109 // Pin5 Pin Change interrupt 1: Off
                 ; 0000 010A // Pin6 Pin Change interrupt 1: Off
                 ; 0000 010B // Pin7 Pin Change interrupt 1: Off
                 ; 0000 010C PORTC.INT1MASK=0x00;
000266 93e0 064b 	STS  1611,R30
                 ; 0000 010D 
                 ; 0000 010E 
                 ; 0000 010F 
                 ; 0000 0110 // PORTD initialization
                 ; 0000 0111 // OUT register
                 ; 0000 0112 PORTD.OUT=0x00;
000268 93e0 0664 	STS  1636,R30
                 ; 0000 0113 //PORTD.DIR=0b11111111;     //-
                 ; 0000 0114 PORTD.DIR=0b00000000;     //-
00026a 93e0 0660 	STS  1632,R30
                 ; 0000 0115 PORTD.PIN0CTRL=PORT_OPC_TOTEM_gc | PORT_ISC_BOTHEDGES_gc;
00026c 93e0 0670 	STS  1648,R30
                 ; 0000 0116 PORTD.PIN1CTRL=PORT_OPC_TOTEM_gc | PORT_ISC_BOTHEDGES_gc;
00026e 93e0 0671 	STS  1649,R30
                 ; 0000 0117 PORTD.PIN2CTRL=PORT_OPC_TOTEM_gc | PORT_ISC_BOTHEDGES_gc;
000270 93e0 0672 	STS  1650,R30
                 ; 0000 0118 PORTD.PIN3CTRL=PORT_OPC_TOTEM_gc | PORT_ISC_BOTHEDGES_gc;
000272 93e0 0673 	STS  1651,R30
                 ; 0000 0119 PORTD.PIN4CTRL=PORT_OPC_TOTEM_gc | PORT_ISC_BOTHEDGES_gc;
000274 93e0 0674 	STS  1652,R30
                 ; 0000 011A PORTD.PIN5CTRL=PORT_OPC_TOTEM_gc | PORT_ISC_BOTHEDGES_gc;
000276 93e0 0675 	STS  1653,R30
                 ; 0000 011B PORTD.PIN6CTRL=PORT_OPC_TOTEM_gc | PORT_ISC_BOTHEDGES_gc;
000278 93e0 0676 	STS  1654,R30
                 ; 0000 011C PORTD.PIN7CTRL=PORT_OPC_TOTEM_gc | PORT_ISC_BOTHEDGES_gc;
00027a 93e0 0677 	STS  1655,R30
                 ; 0000 011D PORTD.INTCTRL=(PORTD.INTCTRL & (~(PORT_INT1LVL_gm | PORT_INT0LVL_gm))) |
                 ; 0000 011E 	PORT_INT1LVL_OFF_gc | PORT_INT0LVL_OFF_gc;
00027c 91e0 0669 	LDS  R30,1641
00027e 7fe0      	ANDI R30,LOW(0xF0)
00027f 93e0 0669 	STS  1641,R30
                 ; 0000 011F PORTD.INT0MASK=0x00;
000281 e0e0      	LDI  R30,LOW(0)
000282 93e0 066a 	STS  1642,R30
                 ; 0000 0120 PORTD.INT1MASK=0x00;
000284 93e0 066b 	STS  1643,R30
                 ; 0000 0121 
                 ; 0000 0122 
                 ; 0000 0123 // PORTE initialization
                 ; 0000 0124 // OUT register
                 ; 0000 0125 PORTE.OUT=0x08;
000286 e0e8      	LDI  R30,LOW(8)
000287 93e0 0684 	STS  1668,R30
                 ; 0000 0126 // Pin0: Input
                 ; 0000 0127 // Pin1: Input
                 ; 0000 0128 // Pin2: Input
                 ; 0000 0129 // Pin3: Output
                 ; 0000 012A PORTE.DIR=0x08;
000289 93e0 0680 	STS  1664,R30
                 ; 0000 012B // Pin0 Output/Pull configuration: Totempole/No
                 ; 0000 012C // Pin0 Input/Sense configuration: Sense both edges
                 ; 0000 012D // Pin0 Inverted: Off
                 ; 0000 012E // Pin0 Slew Rate Limitation: Off
                 ; 0000 012F PORTE.PIN0CTRL=PORT_OPC_TOTEM_gc | PORT_ISC_BOTHEDGES_gc;
00028b e0e0      	LDI  R30,LOW(0)
00028c 93e0 0690 	STS  1680,R30
                 ; 0000 0130 // Pin1 Output/Pull configuration: Totempole/No
                 ; 0000 0131 // Pin1 Input/Sense configuration: Sense both edges
                 ; 0000 0132 // Pin1 Inverted: Off
                 ; 0000 0133 // Pin1 Slew Rate Limitation: Off
                 ; 0000 0134 PORTE.PIN1CTRL=PORT_OPC_TOTEM_gc | PORT_ISC_BOTHEDGES_gc;
00028e 93e0 0691 	STS  1681,R30
                 ; 0000 0135 // Pin2 Output/Pull configuration: Totempole/No
                 ; 0000 0136 // Pin2 Input/Sense configuration: Sense both edges
                 ; 0000 0137 // Pin2 Inverted: Off
                 ; 0000 0138 // Pin2 Slew Rate Limitation: Off
                 ; 0000 0139 PORTE.PIN2CTRL=PORT_OPC_TOTEM_gc | PORT_ISC_BOTHEDGES_gc;
000290 93e0 0692 	STS  1682,R30
                 ; 0000 013A // Pin3 Output/Pull configuration: Totempole/No
                 ; 0000 013B // Pin3 Input/Sense configuration: Sense both edges
                 ; 0000 013C // Pin3 Inverted: Off
                 ; 0000 013D // Pin3 Slew Rate Limitation: Off
                 ; 0000 013E PORTE.PIN3CTRL=PORT_OPC_TOTEM_gc | PORT_ISC_BOTHEDGES_gc;
000292 93e0 0693 	STS  1683,R30
                 ; 0000 013F // Interrupt 0 level: Disabled
                 ; 0000 0140 // Interrupt 1 level: Disabled
                 ; 0000 0141 PORTE.INTCTRL=(PORTE.INTCTRL & (~(PORT_INT1LVL_gm | PORT_INT0LVL_gm))) |
                 ; 0000 0142 	PORT_INT1LVL_OFF_gc | PORT_INT0LVL_OFF_gc;
000294 91e0 0689 	LDS  R30,1673
000296 7fe0      	ANDI R30,LOW(0xF0)
000297 93e0 0689 	STS  1673,R30
                 ; 0000 0143 // Pin0 Pin Change interrupt 0: Off
                 ; 0000 0144 // Pin1 Pin Change interrupt 0: Off
                 ; 0000 0145 // Pin2 Pin Change interrupt 0: Off
                 ; 0000 0146 // Pin3 Pin Change interrupt 0: Off
                 ; 0000 0147 PORTE.INT0MASK=0x00;
000299 e0e0      	LDI  R30,LOW(0)
00029a 93e0 068a 	STS  1674,R30
                 ; 0000 0148 // Pin0 Pin Change interrupt 1: Off
                 ; 0000 0149 // Pin1 Pin Change interrupt 1: Off
                 ; 0000 014A // Pin2 Pin Change interrupt 1: Off
                 ; 0000 014B // Pin3 Pin Change interrupt 1: Off
                 ; 0000 014C PORTE.INT1MASK=0x00;
00029c 93e0 068b 	STS  1675,R30
                 ; 0000 014D }
00029e 9508      	RET
                 ; .FEND
                 ;
                 ;
                 ;// USARTE0 initialization
                 ;void usarte0_init(void)
                 ; 0000 0152 {
                 _usarte0_init:
                 ; .FSTART _usarte0_init
                 ; 0000 0153 // Note: The correct PORTE direction for the RxD, TxD and XCK signals
                 ; 0000 0154 // is configured in the ports_init function.
                 ; 0000 0155 
                 ; 0000 0156 // Transmitter is enabled
                 ; 0000 0157 // Set TxD=1
                 ; 0000 0158 PORTE.OUTSET=0x08;
00029f e0e8      	LDI  R30,LOW(8)
0002a0 93e0 0685 	STS  1669,R30
                 ; 0000 0159 
                 ; 0000 015A // Communication mode: Asynchronous USART
                 ; 0000 015B // Data bits: 8
                 ; 0000 015C // Stop bits: 1
                 ; 0000 015D // Parity: Disabled
                 ; 0000 015E USARTE0.CTRLC=USART_CMODE_ASYNCHRONOUS_gc | USART_PMODE_DISABLED_gc | USART_CHSIZE_8BIT_gc;
0002a2 e0e3      	LDI  R30,LOW(3)
0002a3 93e0 0aa5 	STS  2725,R30
                 ; 0000 015F 
                 ; 0000 0160 // Receive complete interrupt: Disabled
                 ; 0000 0161 // Transmit complete interrupt: Disabled
                 ; 0000 0162 // Data register empty interrupt: Disabled
                 ; 0000 0163 USARTE0.CTRLA=(USARTE0.CTRLA & (~(USART_RXCINTLVL_gm | USART_TXCINTLVL_gm | USART_DREINTLVL_gm))) |
                 ; 0000 0164 	USART_RXCINTLVL_OFF_gc | USART_TXCINTLVL_OFF_gc | USART_DREINTLVL_OFF_gc;
0002a5 91e0 0aa3 	LDS  R30,2723
0002a7 7ce0      	ANDI R30,LOW(0xC0)
0002a8 93e0 0aa3 	STS  2723,R30
                 ; 0000 0165 
                 ; 0000 0166 // Required Baud rate: 57600
                 ; 0000 0167 // Real Baud Rate: 57605,8 (x1 Mode), Error: 0,0 %
                 ; 0000 0168 USARTE0.BAUDCTRLA=0x2E;
0002aa e2ee      	LDI  R30,LOW(46)
0002ab 93e0 0aa6 	STS  2726,R30
                 ; 0000 0169 USARTE0.BAUDCTRLB=((0x09 << USART_BSCALE_gp) & USART_BSCALE_gm) | 0x08;
0002ad e9e8      	LDI  R30,LOW(152)
0002ae 93e0 0aa7 	STS  2727,R30
                 ; 0000 016A 
                 ; 0000 016B // Receiver: Off
                 ; 0000 016C // Transmitter: On
                 ; 0000 016D // Double transmission speed mode: Off
                 ; 0000 016E // Multi-processor communication mode: Off
                 ; 0000 016F USARTE0.CTRLB=(USARTE0.CTRLB & (~(USART_RXEN_bm | USART_TXEN_bm | USART_CLK2X_bm | USART_MPCM_bm | USART_TXB8_bm))) |
                 ; 0000 0170 	USART_TXEN_bm;
0002b0 91e0 0aa4 	LDS  R30,2724
0002b2 7ee0      	ANDI R30,LOW(0xE0)
0002b3 60e8      	ORI  R30,8
0002b4 93e0 0aa4 	STS  2724,R30
                 ; 0000 0171 }
0002b6 9508      	RET
                 ; .FEND
                 ;
                 ;// Write a character to the USARTE0 Transmitter
                 ;#pragma used+
                 ;void putchar_usarte0(char c)
                 ; 0000 0176 {
                 _putchar_usarte0:
                 ; .FSTART _putchar_usarte0
                 ; 0000 0177 while ((USARTE0.STATUS & USART_DREIF_bm) == 0);
0002b7 93aa      	ST   -Y,R26
                 ;	c -> Y+0
                 _0xD:
0002b8 91e0 0aa1 	LDS  R30,2721
0002ba 72e0      	ANDI R30,LOW(0x20)
0002bb f3e1      	BREQ _0xD
                 ; 0000 0178 USARTE0.DATA=c;
0002bc 81e8      	LD   R30,Y
0002bd 93e0 0aa0 	STS  2720,R30
                 ; 0000 0179 }
0002bf c58c      	RJMP _0x20C0018
                 ; .FEND
                 ;#pragma used-
                 ;
                 ;
                 ;// PORTB interrupt 0 service routine
                 ;interrupt [PORTB_INT0_vect] void portb_int0_isr(void)
                 ; 0000 017F {
                 _portb_int0_isr:
                 ; .FSTART _portb_int0_isr
0002c0 93aa      	ST   -Y,R26
0002c1 93ba      	ST   -Y,R27
0002c2 93ea      	ST   -Y,R30
0002c3 93fa      	ST   -Y,R31
0002c4 b7ef      	IN   R30,SREG
0002c5 93ea      	ST   -Y,R30
                 ; 0000 0180 PORTD.OUT = buffer_1[b];
0002c6 e8a2      	LDI  R26,LOW(_buffer_1)
0002c7 e2b8      	LDI  R27,HIGH(_buffer_1)
0002c8 0da8      	ADD  R26,R8
0002c9 1db9      	ADC  R27,R9
0002ca 91ec      	LD   R30,X
0002cb 93e0 0664 	STS  1636,R30
                 ; 0000 0181 if (b<1535)
0002cd efef      	LDI  R30,LOW(1535)
0002ce e0f5      	LDI  R31,HIGH(1535)
0002cf 168e      	CP   R8,R30
0002d0 069f      	CPC  R9,R31
0002d1 f420      	BRSH _0x10
                 ; 0000 0182     {
                 ; 0000 0183     b++;
0002d2 01f4      	MOVW R30,R8
0002d3 9631      	ADIW R30,1
0002d4 014f      	MOVW R8,R30
                 ; 0000 0184     }
                 ; 0000 0185 else
0002d5 c007      	RJMP _0x11
                 _0x10:
                 ; 0000 0186     {
                 ; 0000 0187     PORTB.OUT CLR_B(0);   //PORTB.0 = 0;   (AVR_READY)
0002d6 91e0 0624 	LDS  R30,1572
0002d8 7fee      	ANDI R30,0xFE
0002d9 93e0 0624 	STS  1572,R30
                 ; 0000 0188     b=0;
0002db 2488      	CLR  R8
0002dc 2499      	CLR  R9
                 ; 0000 0189     }
                 _0x11:
                 ; 0000 018A }
0002dd 91e9      	LD   R30,Y+
0002de bfef      	OUT  SREG,R30
0002df 91f9      	LD   R31,Y+
0002e0 91e9      	LD   R30,Y+
0002e1 91b9      	LD   R27,Y+
0002e2 91a9      	LD   R26,Y+
0002e3 9518      	RETI
                 ; .FEND
                 ;
                 ;
                 ;
                 ;void main(void)
                 ; 0000 018F {
                 _main:
                 ; .FSTART _main
                 ; 0000 0190 unsigned char n;
                 ; 0000 0191 
                 ; 0000 0192 /* Interrupt system initialization
                 ; 0000 0193    Optimize for speed */
                 ; 0000 0194 #pragma optsize-
                 ; 0000 0195 /* Low level interrupt: On
                 ; 0000 0196    Round-robin scheduling for low level interrupt: Off
                 ; 0000 0197    Medium level interrupt: Off
                 ; 0000 0198    High level interrupt: Off
                 ; 0000 0199    The interrupt vectors will be placed at the start of the Application FLASH section */
                 ; 0000 019A n=(PMIC.CTRL & (~(PMIC_RREN_bm | PMIC_IVSEL_bm | PMIC_HILVLEN_bm | PMIC_MEDLVLEN_bm | PMIC_LOLVLEN_bm))) |
                 ;	n -> R17
                 ; 0000 019B 	PMIC_LOLVLEN_bm | PMIC_HILVLEN_bm;
0002e4 91e0 00a2 	LDS  R30,162
0002e6 73e8      	ANDI R30,LOW(0x38)
0002e7 60e5      	ORI  R30,LOW(0x5)
0002e8 2f1e      	MOV  R17,R30
                 ; 0000 019C CCP=CCP_IOREG_gc;
0002e9 ede8      	LDI  R30,LOW(216)
0002ea bfe4      	OUT  0x34,R30
                 ; 0000 019D PMIC.CTRL=n;
0002eb 9310 00a2 	STS  162,R17
                 ; 0000 019E /* Set the default priority for round-robin scheduling */
                 ; 0000 019F PMIC.INTPRI=0x00;
0002ed e0e0      	LDI  R30,LOW(0)
0002ee 93e0 00a1 	STS  161,R30
                 ; 0000 01A0 /* Restore optimization for size if needed */
                 ; 0000 01A1 #pragma optsize_default
                 ; 0000 01A2 
                 ; 0000 01A3 
                 ; 0000 01A4 system_clocks_init();
0002f0 dea9      	RCALL _system_clocks_init
                 ; 0000 01A5 rtcxm_init();
0002f1 deea      	RCALL _rtcxm_init
                 ; 0000 01A6 ports_init();
0002f2 df37      	RCALL _ports_init
                 ; 0000 01A7 PORTD.DIR=0xFF;    //-
0002f3 efef      	LDI  R30,LOW(255)
0002f4 93e0 0660 	STS  1632,R30
                 ; 0000 01A8 PORTB.OUT CLR_B(0);      //AVR_READY=0;
0002f6 91e0 0624 	LDS  R30,1572
0002f8 7fee      	ANDI R30,0xFE
0002f9 93e0 0624 	STS  1572,R30
                 ; 0000 01A9 PORTB.OUT CLR_B(1);      //RESET   PORTB.1 = 0
0002fb 91e0 0624 	LDS  R30,1572
0002fd 7fed      	ANDI R30,0xFD
0002fe 93e0 0624 	STS  1572,R30
                 ; 0000 01AA b = 0;
000300 2488      	CLR  R8
000301 2499      	CLR  R9
                 ; 0000 01AB usarte0_init();
000302 df9c      	RCALL _usarte0_init
                 ; 0000 01AC 
                 ; 0000 01AD 
                 ; 0000 01AE /* globally enable interrupts */
                 ; 0000 01AF #asm("sei")
000303 9478      	sei
                 ; 0000 01B0 
                 ; 0000 01B1 //search = 0;                            //search   b (, )        330
                 ; 0000 01B2 //if ((res=f_lseek(&file, search))==FR_OK)    /////////    
                 ; 0000 01B3 
                 ; 0000 01B4 if ((res=f_mount(0,&fat))==FR_OK)       //////////   mount logical drive 0:
000304 e0e0      	LDI  R30,LOW(0)
000305 93ea      	ST   -Y,R30
000306 e0a4      	LDI  R26,LOW(_fat)
000307 e2b4      	LDI  R27,HIGH(_fat)
000308 940e 18a3 	CALL _f_mount
00030a 2e3e      	MOV  R3,R30
                 ; 0000 01B5     {
                 ; 0000 01B6     }
                 ; 0000 01B7 
                 ; 0000 01B8 delay_ms(2000);                                 //  ,     STM
00030b eda0      	LDI  R26,LOW(2000)
00030c e0b7      	LDI  R27,HIGH(2000)
00030d 940e 2032 	CALL _delay_ms
                 ; 0000 01B9 
                 ; 0000 01BA while(1)
                 _0x13:
                 ; 0000 01BB {
                 ; 0000 01BC if ((res=f_open(&file,path,FA_READ))==FR_OK)                /////////////////    path  
00030f e3e6      	LDI  R30,LOW(_file)
000310 e2f6      	LDI  R31,HIGH(_file)
000311 93fa      	ST   -Y,R31
000312 93ea      	ST   -Y,R30
000313 e6ec      	LDI  R30,LOW(_path)
000314 e2f8      	LDI  R31,HIGH(_path)
000315 93fa      	ST   -Y,R31
000316 93ea      	ST   -Y,R30
000317 e0a1      	LDI  R26,LOW(1)
000318 940e 18d5 	CALL _f_open
00031a 2e3e      	MOV  R3,R30
00031b 30e0      	CPI  R30,0
00031c f009      	BREQ PC+2
00031d c1d3      	RJMP _0x16
                 ; 0000 01BD     {
                 ; 0000 01BE     SEND[0]=path[7]-48;                               /////    
                +
00031e 91e0 2873+LDS R30 , _path + ( 7 )
                 	__GETB1MN _path,7
000320 53e0      	SUBI R30,LOW(48)
000321 93e0 2e86 	STS  _SEND,R30
                 ; 0000 01BF     SEND[1]=(10*(path[15]-48))+path[16]-48;           //  
                +
000323 91e0 287b+LDS R30 , _path + ( 15 )
                 	__GETB1MN _path,15
000325 53e0      	SUBI R30,LOW(48)
000326 e0aa      	LDI  R26,LOW(10)
000327 9fea      	MUL  R30,R26
000328 01f0      	MOVW R30,R0
000329 2fae      	MOV  R26,R30
                +
00032a 91e0 287c+LDS R30 , _path + ( 16 )
                 	__GETB1MN _path,16
00032c 0fae      	ADD  R26,R30
00032d e3e0      	LDI  R30,LOW(48)
00032e 940e 215c 	CALL __SWAPB12
000330 1bea      	SUB  R30,R26
                +
000331 93e0 2e87+STS _SEND + ( 1 ) , R30
                 	__PUTB1MN _SEND,1
                 ; 0000 01C0     if ((res=f_lseek(&file, 55))==FR_OK)               //     
000333 e3e6      	LDI  R30,LOW(_file)
000334 e2f6      	LDI  R31,HIGH(_file)
000335 93fa      	ST   -Y,R31
000336 93ea      	ST   -Y,R30
                +
000337 e3a7     +LDI R26 , LOW ( 0x37 )
000338 e0b0     +LDI R27 , HIGH ( 0x37 )
000339 e080     +LDI R24 , BYTE3 ( 0x37 )
00033a e090     +LDI R25 , BYTE4 ( 0x37 )
                 	__GETD2N 0x37
00033b 940e 1d13 	CALL _f_lseek
00033d 2e3e      	MOV  R3,R30
00033e 30e0      	CPI  R30,0
00033f f009      	BREQ PC+2
000340 c1af      	RJMP _0x17
                 ; 0000 01C1         {
                 ; 0000 01C2         if ((res=f_read(&file,FROM_SD,sizeof(FROM_SD),&nbytes))==FR_OK)              ////     ...
000341 e3e6      	LDI  R30,LOW(_file)
000342 e2f6      	LDI  R31,HIGH(_file)
000343 93fa      	ST   -Y,R31
000344 93ea      	ST   -Y,R30
000345 e8e2      	LDI  R30,LOW(_FROM_SD)
000346 e2fe      	LDI  R31,HIGH(_FROM_SD)
000347 93fa      	ST   -Y,R31
000348 93ea      	ST   -Y,R30
000349 e0e4      	LDI  R30,LOW(4)
00034a e0f0      	LDI  R31,HIGH(4)
00034b 93fa      	ST   -Y,R31
00034c 93ea      	ST   -Y,R30
00034d b7ad      	IN   R26,SPL
00034e b7be      	IN   R27,SPH
00034f 9711      	SBIW R26,1
000350 925f      	PUSH R5
000351 924f      	PUSH R4
000352 940e 1a30 	CALL _f_read
000354 904f      	POP  R4
000355 905f      	POP  R5
000356 2e3e      	MOV  R3,R30
000357 30e0      	CPI  R30,0
000358 f009      	BREQ PC+2
000359 c196      	RJMP _0x18
                 ; 0000 01C3             {
                 ; 0000 01C4             if ((res=f_stat(path,&finfo))==FR_OK)
00035a e6ec      	LDI  R30,LOW(_path)
00035b e2f8      	LDI  R31,HIGH(_path)
00035c 93fa      	ST   -Y,R31
00035d 93ea      	ST   -Y,R30
00035e e5a6      	LDI  R26,LOW(_finfo)
00035f e2b8      	LDI  R27,HIGH(_finfo)
000360 940e 1fc4 	CALL _f_stat
000362 2e3e      	MOV  R3,R30
000363 30e0      	CPI  R30,0
000364 f009      	BREQ PC+2
000365 c18a      	RJMP _0x19
                 ; 0000 01C5                 {
                 ; 0000 01C6                 if ((res=f_read(&file,&analyzing,sizeof(1),&nbytes))==FR_OK)              ////   ...
000366 e3e6      	LDI  R30,LOW(_file)
000367 e2f6      	LDI  R31,HIGH(_file)
000368 93fa      	ST   -Y,R31
000369 93ea      	ST   -Y,R30
00036a b7ed      	IN   R30,SPL
00036b b7fe      	IN   R31,SPH
00036c 93fa      	ST   -Y,R31
00036d 93ea      	ST   -Y,R30
00036e 92df      	PUSH R13
00036f e0e1      	LDI  R30,LOW(1)
000370 e0f0      	LDI  R31,HIGH(1)
000371 93fa      	ST   -Y,R31
000372 93ea      	ST   -Y,R30
000373 b7ad      	IN   R26,SPL
000374 b7be      	IN   R27,SPH
000375 9711      	SBIW R26,1
000376 925f      	PUSH R5
000377 924f      	PUSH R4
000378 940e 1a30 	CALL _f_read
00037a 904f      	POP  R4
00037b 905f      	POP  R5
00037c 90df      	POP  R13
00037d 2e3e      	MOV  R3,R30
00037e 30e0      	CPI  R30,0
00037f f009      	BREQ PC+2
000380 c16f      	RJMP _0x1A
                 ; 0000 01C7                     {
                 ; 0000 01C8                     if ((res=f_read(&file,WFM,sizeof(WFM),&nbytes))==FR_OK)              //// Waveform   ...
000381 e3e6      	LDI  R30,LOW(_file)
000382 e2f6      	LDI  R31,HIGH(_file)
000383 93fa      	ST   -Y,R31
000384 93ea      	ST   -Y,R30
000385 e8ec      	LDI  R30,LOW(_WFM)
000386 e2fe      	LDI  R31,HIGH(_WFM)
000387 93fa      	ST   -Y,R31
000388 93ea      	ST   -Y,R30
000389 e4e0      	LDI  R30,LOW(64)
00038a e0f0      	LDI  R31,HIGH(64)
00038b 93fa      	ST   -Y,R31
00038c 93ea      	ST   -Y,R30
00038d b7ad      	IN   R26,SPL
00038e b7be      	IN   R27,SPH
00038f 9711      	SBIW R26,1
000390 925f      	PUSH R5
000391 924f      	PUSH R4
000392 940e 1a30 	CALL _f_read
000394 904f      	POP  R4
000395 905f      	POP  R5
000396 2e3e      	MOV  R3,R30
000397 30e0      	CPI  R30,0
000398 f009      	BREQ PC+2
000399 c156      	RJMP _0x1B
                 ; 0000 01C9                         {
                 ; 0000 01CA                         flength=finfo.fsize;                     ////    
00039a 91e0 2856 	LDS  R30,_finfo
00039c 91f0 2857 	LDS  R31,_finfo+1
00039e 9160 2858 	LDS  R22,_finfo+2
0003a0 9170 2859 	LDS  R23,_finfo+3
0003a2 93e0 2ecc 	STS  _flength,R30
0003a4 93f0 2ecd 	STS  _flength+1,R31
0003a6 9360 2ece 	STS  _flength+2,R22
0003a8 9370 2ecf 	STS  _flength+3,R23
                 ; 0000 01CB                         flength=flength-124;                     //    
                +
0003aa 57ec     +SUBI R30 , LOW ( 124 )
0003ab 40f0     +SBCI R31 , HIGH ( 124 )
0003ac 4060     +SBCI R22 , BYTE3 ( 124 )
0003ad 4070     +SBCI R23 , BYTE4 ( 124 )
                 	__SUBD1N 124
0003ae 93e0 2ecc 	STS  _flength,R30
0003b0 93f0 2ecd 	STS  _flength+1,R31
0003b2 9360 2ece 	STS  _flength+2,R22
0003b4 9370 2ecf 	STS  _flength+3,R23
                 ; 0000 01CC                         remain=flength/1536;                     //    1536 
0003b6 91a0 2ecc 	LDS  R26,_flength
0003b8 91b0 2ecd 	LDS  R27,_flength+1
0003ba 9180 2ece 	LDS  R24,_flength+2
0003bc 9190 2ecf 	LDS  R25,_flength+3
                +
0003be e0e0     +LDI R30 , LOW ( 0x600 )
0003bf e0f6     +LDI R31 , HIGH ( 0x600 )
0003c0 e060     +LDI R22 , BYTE3 ( 0x600 )
0003c1 e070     +LDI R23 , BYTE4 ( 0x600 )
                 	__GETD1N 0x600
0003c2 940e 20e9 	CALL __DIVD21U
0003c4 013f      	MOVW R6,R30
                 ; 0000 01CD                         if(flength>33554431)                                //////////////////////////////////////////// ...
0003c5 91a0 2ecc 	LDS  R26,_flength
0003c7 91b0 2ecd 	LDS  R27,_flength+1
0003c9 9180 2ece 	LDS  R24,_flength+2
0003cb 9190 2ecf 	LDS  R25,_flength+3
                +
0003cd 30a0     +CPI R26 , LOW ( 0x2000000 )
0003ce e0e0     +LDI R30 , HIGH ( 0x2000000 )
0003cf 07be     +CPC R27 , R30
0003d0 e0e0     +LDI R30 , BYTE3 ( 0x2000000 )
0003d1 078e     +CPC R24 , R30
0003d2 e0e2     +LDI R30 , BYTE4 ( 0x2000000 )
0003d3 079e     +CPC R25 , R30
                 	__CPD2N 0x2000000
0003d4 f128      	BRLO _0x1C
                 ; 0000 01CE                             {                                               //
                 ; 0000 01CF                             FPGA_TRACK_TIME = 255;                          //
0003d5 efef      	LDI  R30,LOW(255)
0003d6 2e2e      	MOV  R2,R30
                 ; 0000 01D0                             SEND[2]=(256*FROM_SD[0]+FROM_SD[1])/512;        //
0003d7 91f0 2e82 	LDS  R31,_FROM_SD
0003d9 e0e0      	LDI  R30,LOW(0)
0003da 01df      	MOVW R26,R30
                +
0003db 91e0 2e83+LDS R30 , _FROM_SD + ( 1 )
                 	__GETB1MN _FROM_SD,1
0003dd e0f0      	LDI  R31,0
0003de 0fae      	ADD  R26,R30
0003df 1fbf      	ADC  R27,R31
0003e0 e0e0      	LDI  R30,LOW(512)
0003e1 e0f2      	LDI  R31,HIGH(512)
0003e2 940e 20e4 	CALL __DIVW21
                +
0003e4 93e0 2e88+STS _SEND + ( 2 ) , R30
                 	__PUTB1MN _SEND,2
                 ; 0000 01D1                             SEND[3]=(256*FROM_SD[2]+FROM_SD[3])/512;        //
                +
0003e6 91f0 2e84+LDS R31 , _FROM_SD + ( 2 )
                 	__GETB1HMN _FROM_SD,2
0003e8 e0e0      	LDI  R30,LOW(0)
0003e9 01df      	MOVW R26,R30
                +
0003ea 91e0 2e85+LDS R30 , _FROM_SD + ( 3 )
                 	__GETB1MN _FROM_SD,3
0003ec e0f0      	LDI  R31,0
0003ed 0fae      	ADD  R26,R30
0003ee 1fbf      	ADC  R27,R31
0003ef e0e0      	LDI  R30,LOW(512)
0003f0 e0f2      	LDI  R31,HIGH(512)
0003f1 940e 20e4 	CALL __DIVW21
                +
0003f3 93e0 2e89+STS _SEND + ( 3 ) , R30
                 	__PUTB1MN _SEND,3
                 ; 0000 01D2                             flength=381;                                    //
                +
0003f5 e7ed     +LDI R30 , LOW ( 0x17D )
0003f6 e0f1     +LDI R31 , HIGH ( 0x17D )
0003f7 e060     +LDI R22 , BYTE3 ( 0x17D )
0003f8 e070     +LDI R23 , BYTE4 ( 0x17D )
                 	__GETD1N 0x17D
0003f9 c048      	RJMP _0x5C
                 ; 0000 01D3                             }                                               //         ...
                 ; 0000 01D4                         else                                                //
                 _0x1C:
                 ; 0000 01D5                             {                                               //
                 ; 0000 01D6                             FPGA_TRACK_TIME = flength/131587;               //                            STM
0003fa 91a0 2ecc 	LDS  R26,_flength
0003fc 91b0 2ecd 	LDS  R27,_flength+1
0003fe 9180 2ece 	LDS  R24,_flength+2
000400 9190 2ecf 	LDS  R25,_flength+3
                +
000402 e0e3     +LDI R30 , LOW ( 0x20203 )
000403 e0f2     +LDI R31 , HIGH ( 0x20203 )
000404 e062     +LDI R22 , BYTE3 ( 0x20203 )
000405 e070     +LDI R23 , BYTE4 ( 0x20203 )
                 	__GETD1N 0x20203
000406 940e 20e9 	CALL __DIVD21U
000408 2e2e      	MOV  R2,R30
                 ; 0000 01D7                             allsec=flength/65536;                           //
000409 91a0 2ecc 	LDS  R26,_flength
00040b 91b0 2ecd 	LDS  R27,_flength+1
00040d 9180 2ece 	LDS  R24,_flength+2
00040f 9190 2ecf 	LDS  R25,_flength+3
                +
000411 e0e0     +LDI R30 , LOW ( 0x10000 )
000412 e0f0     +LDI R31 , HIGH ( 0x10000 )
000413 e061     +LDI R22 , BYTE3 ( 0x10000 )
000414 e070     +LDI R23 , BYTE4 ( 0x10000 )
                 	__GETD1N 0x10000
000415 940e 20e9 	CALL __DIVD21U
000417 015f      	MOVW R10,R30
                 ; 0000 01D8                             SEND[2]=(256*FROM_SD[0]+FROM_SD[1])/allsec;     //
000418 91f0 2e82 	LDS  R31,_FROM_SD
00041a e0e0      	LDI  R30,LOW(0)
00041b 01df      	MOVW R26,R30
                +
00041c 91e0 2e83+LDS R30 , _FROM_SD + ( 1 )
                 	__GETB1MN _FROM_SD,1
00041e e0f0      	LDI  R31,0
00041f 0fae      	ADD  R26,R30
000420 1fbf      	ADC  R27,R31
000421 01f5      	MOVW R30,R10
000422 940e 20d1 	CALL __DIVW21U
                +
000424 93e0 2e88+STS _SEND + ( 2 ) , R30
                 	__PUTB1MN _SEND,2
                 ; 0000 01D9                             SEND[3]=(256*FROM_SD[2]+FROM_SD[3])/allsec;     //
                +
000426 91f0 2e84+LDS R31 , _FROM_SD + ( 2 )
                 	__GETB1HMN _FROM_SD,2
000428 e0e0      	LDI  R30,LOW(0)
000429 01df      	MOVW R26,R30
                +
00042a 91e0 2e85+LDS R30 , _FROM_SD + ( 3 )
                 	__GETB1MN _FROM_SD,3
00042c e0f0      	LDI  R31,0
00042d 0fae      	ADD  R26,R30
00042e 1fbf      	ADC  R27,R31
00042f 01f5      	MOVW R30,R10
000430 940e 20d1 	CALL __DIVW21U
                +
000432 93e0 2e89+STS _SEND + ( 3 ) , R30
                 	__PUTB1MN _SEND,3
                 ; 0000 01DA                             flength=flength/88200;                          //
000434 91a0 2ecc 	LDS  R26,_flength
000436 91b0 2ecd 	LDS  R27,_flength+1
000438 9180 2ece 	LDS  R24,_flength+2
00043a 9190 2ecf 	LDS  R25,_flength+3
                +
00043c e8e8     +LDI R30 , LOW ( 0x15888 )
00043d e5f8     +LDI R31 , HIGH ( 0x15888 )
00043e e061     +LDI R22 , BYTE3 ( 0x15888 )
00043f e070     +LDI R23 , BYTE4 ( 0x15888 )
                 	__GETD1N 0x15888
000440 940e 20e9 	CALL __DIVD21U
                 _0x5C:
000442 93e0 2ecc 	STS  _flength,R30
000444 93f0 2ecd 	STS  _flength+1,R31
000446 9360 2ece 	STS  _flength+2,R22
000448 9370 2ecf 	STS  _flength+3,R23
                 ; 0000 01DB                             }                                               //////////////////////////////////////////// ...
                 ; 0000 01DC                         SEND[4]=flength/256;
00044a 91a0 2ecc 	LDS  R26,_flength
00044c 91b0 2ecd 	LDS  R27,_flength+1
00044e 9180 2ece 	LDS  R24,_flength+2
000450 9190 2ecf 	LDS  R25,_flength+3
                +
000452 e0e0     +LDI R30 , LOW ( 0x100 )
000453 e0f1     +LDI R31 , HIGH ( 0x100 )
000454 e060     +LDI R22 , BYTE3 ( 0x100 )
000455 e070     +LDI R23 , BYTE4 ( 0x100 )
                 	__GETD1N 0x100
000456 940e 20e9 	CALL __DIVD21U
                +
000458 93e0 2e8a+STS _SEND + ( 4 ) , R30
                 	__PUTB1MN _SEND,4
                 ; 0000 01DD                         SEND[5]=flength%256;
00045a 91e0 2ecc 	LDS  R30,_flength
                +
00045c 93e0 2e8b+STS _SEND + ( 5 ) , R30
                 	__PUTB1MN _SEND,5
                 ; 0000 01DE                         if(!(analyzing==170))           /////    ,    ,  ...
00045e eaea      	LDI  R30,LOW(170)
00045f 15ed      	CP   R30,R13
000460 f061      	BREQ _0x1E
                 ; 0000 01DF                             {
                 ; 0000 01E0                             cnt_uart=0;
000461 24cc      	CLR  R12
                 ; 0000 01E1                             while(cnt_uart<64)
                 _0x1F:
000462 e4e0      	LDI  R30,LOW(64)
000463 16ce      	CP   R12,R30
000464 f440      	BRSH _0x21
                 ; 0000 01E2                                 {
                 ; 0000 01E3                                 WFM[cnt_uart]=0;
000465 2dec      	MOV  R30,R12
000466 e0f0      	LDI  R31,0
000467 57e4      	SUBI R30,LOW(-_WFM)
000468 4df1      	SBCI R31,HIGH(-_WFM)
000469 e0a0      	LDI  R26,LOW(0)
00046a 83a0      	STD  Z+0,R26
                 ; 0000 01E4                                 cnt_uart++;
00046b 94c3      	INC  R12
                 ; 0000 01E5                                 }
00046c cff5      	RJMP _0x1F
                 _0x21:
                 ; 0000 01E6                             }
                 ; 0000 01E7                         cnt_uart=0;
                 _0x1E:
00046d 24cc      	CLR  R12
                 ; 0000 01E8                         while(cnt_uart<70)
                 _0x22:
00046e e4e6      	LDI  R30,LOW(70)
00046f 16ce      	CP   R12,R30
000470 f488      	BRSH _0x24
                 ; 0000 01E9                             {
                 ; 0000 01EA                             if(cnt_uart<64)
000471 e4e0      	LDI  R30,LOW(64)
000472 16ce      	CP   R12,R30
000473 f428      	BRSH _0x25
                 ; 0000 01EB                                 {
                 ; 0000 01EC                                 putchar_usarte0(WFM[cnt_uart]);
000474 2dec      	MOV  R30,R12
000475 e0f0      	LDI  R31,0
000476 57e4      	SUBI R30,LOW(-_WFM)
000477 4df1      	SBCI R31,HIGH(-_WFM)
000478 c005      	RJMP _0x5D
                 ; 0000 01ED                                 }
                 ; 0000 01EE                             else
                 _0x25:
                 ; 0000 01EF                                 {
                 ; 0000 01F0                                 putchar_usarte0(SEND[cnt_uart-64]);
000479 2dec      	MOV  R30,R12
00047a 54e0      	SUBI R30,LOW(64)
00047b e0f0      	LDI  R31,0
00047c 57ea      	SUBI R30,LOW(-_SEND)
00047d 4df1      	SBCI R31,HIGH(-_SEND)
                 _0x5D:
00047e 81a0      	LD   R26,Z
00047f de37      	RCALL _putchar_usarte0
                 ; 0000 01F1                                 }
                 ; 0000 01F2                             cnt_uart++;
000480 94c3      	INC  R12
                 ; 0000 01F3                             }
000481 cfec      	RJMP _0x22
                 _0x24:
                 ; 0000 01F4 
                 ; 0000 01F5                         PORTD.OUT=FROM_SD[0];
000482 91e0 2e82 	LDS  R30,_FROM_SD
000484 93e0 0664 	STS  1636,R30
                 ; 0000 01F6                         delay_us(1);
                +
000486 e08b     +LDI R24 , LOW ( 11 )
                +__DELAY_USB_LOOP :
000487 958a     +DEC R24
000488 f7f1     +BRNE __DELAY_USB_LOOP
                 	__DELAY_USB 11
                 ; 0000 01F7                         PORTB.OUT SET_B(0);      //AVR_READY=1;
000489 91e0 0624 	LDS  R30,1572
00048b 60e1      	ORI  R30,1
00048c 93e0 0624 	STS  1572,R30
                 ; 0000 01F8                         delay_us(1);
                +
00048e e08b     +LDI R24 , LOW ( 11 )
                +__DELAY_USB_LOOP :
00048f 958a     +DEC R24
000490 f7f1     +BRNE __DELAY_USB_LOOP
                 	__DELAY_USB 11
                 ; 0000 01F9                         PORTB.OUT CLR_B(0);      //AVR_READY=0;
000491 91e0 0624 	LDS  R30,1572
000493 7fee      	ANDI R30,0xFE
000494 93e0 0624 	STS  1572,R30
                 ; 0000 01FA                         PORTD.OUT=FROM_SD[1];
                +
000496 91e0 2e83+LDS R30 , _FROM_SD + ( 1 )
                 	__GETB1MN _FROM_SD,1
000498 93e0 0664 	STS  1636,R30
                 ; 0000 01FB                         delay_us(1);
                +
00049a e08b     +LDI R24 , LOW ( 11 )
                +__DELAY_USB_LOOP :
00049b 958a     +DEC R24
00049c f7f1     +BRNE __DELAY_USB_LOOP
                 	__DELAY_USB 11
                 ; 0000 01FC                         PORTB.OUT SET_B(0);      //AVR_READY=1;
00049d 91e0 0624 	LDS  R30,1572
00049f 60e1      	ORI  R30,1
0004a0 93e0 0624 	STS  1572,R30
                 ; 0000 01FD                         delay_us(1);
                +
0004a2 e08b     +LDI R24 , LOW ( 11 )
                +__DELAY_USB_LOOP :
0004a3 958a     +DEC R24
0004a4 f7f1     +BRNE __DELAY_USB_LOOP
                 	__DELAY_USB 11
                 ; 0000 01FE                         PORTB.OUT CLR_B(0);      //AVR_READY=0;
0004a5 91e0 0624 	LDS  R30,1572
0004a7 7fee      	ANDI R30,0xFE
0004a8 93e0 0624 	STS  1572,R30
                 ; 0000 01FF                         PORTD.OUT=FROM_SD[2];
                +
0004aa 91e0 2e84+LDS R30 , _FROM_SD + ( 2 )
                 	__GETB1MN _FROM_SD,2
0004ac 93e0 0664 	STS  1636,R30
                 ; 0000 0200                         delay_us(1);
                +
0004ae e08b     +LDI R24 , LOW ( 11 )
                +__DELAY_USB_LOOP :
0004af 958a     +DEC R24
0004b0 f7f1     +BRNE __DELAY_USB_LOOP
                 	__DELAY_USB 11
                 ; 0000 0201                         PORTB.OUT SET_B(0);      //AVR_READY=1;
0004b1 91e0 0624 	LDS  R30,1572
0004b3 60e1      	ORI  R30,1
0004b4 93e0 0624 	STS  1572,R30
                 ; 0000 0202                         delay_us(1);
                +
0004b6 e08b     +LDI R24 , LOW ( 11 )
                +__DELAY_USB_LOOP :
0004b7 958a     +DEC R24
0004b8 f7f1     +BRNE __DELAY_USB_LOOP
                 	__DELAY_USB 11
                 ; 0000 0203                         PORTB.OUT CLR_B(0);      //AVR_READY=0;
0004b9 91e0 0624 	LDS  R30,1572
0004bb 7fee      	ANDI R30,0xFE
0004bc 93e0 0624 	STS  1572,R30
                 ; 0000 0204                         PORTD.OUT=FROM_SD[3];
                +
0004be 91e0 2e85+LDS R30 , _FROM_SD + ( 3 )
                 	__GETB1MN _FROM_SD,3
0004c0 93e0 0664 	STS  1636,R30
                 ; 0000 0205                         delay_us(1);
                +
0004c2 e08b     +LDI R24 , LOW ( 11 )
                +__DELAY_USB_LOOP :
0004c3 958a     +DEC R24
0004c4 f7f1     +BRNE __DELAY_USB_LOOP
                 	__DELAY_USB 11
                 ; 0000 0206                         PORTB.OUT SET_B(0);      //AVR_READY=1;
0004c5 91e0 0624 	LDS  R30,1572
0004c7 60e1      	ORI  R30,1
0004c8 93e0 0624 	STS  1572,R30
                 ; 0000 0207                         delay_us(1);
                +
0004ca e08b     +LDI R24 , LOW ( 11 )
                +__DELAY_USB_LOOP :
0004cb 958a     +DEC R24
0004cc f7f1     +BRNE __DELAY_USB_LOOP
                 	__DELAY_USB 11
                 ; 0000 0208                         PORTB.OUT CLR_B(0);      //AVR_READY=0;
0004cd 91e0 0624 	LDS  R30,1572
0004cf 7fee      	ANDI R30,0xFE
0004d0 93e0 0624 	STS  1572,R30
                 ; 0000 0209                         PORTD.OUT=FPGA_TRACK_TIME;               ///////     FPGA
0004d2 9220 0664 	STS  1636,R2
                 ; 0000 020A                         delay_us(1);
                +
0004d4 e08b     +LDI R24 , LOW ( 11 )
                +__DELAY_USB_LOOP :
0004d5 958a     +DEC R24
0004d6 f7f1     +BRNE __DELAY_USB_LOOP
                 	__DELAY_USB 11
                 ; 0000 020B                         PORTB.OUT SET_B(0);      //AVR_READY=1;
0004d7 91e0 0624 	LDS  R30,1572
0004d9 60e1      	ORI  R30,1
0004da 93e0 0624 	STS  1572,R30
                 ; 0000 020C                         delay_us(1);
                +
0004dc e08b     +LDI R24 , LOW ( 11 )
                +__DELAY_USB_LOOP :
0004dd 958a     +DEC R24
0004de f7f1     +BRNE __DELAY_USB_LOOP
                 	__DELAY_USB 11
                 ; 0000 020D                         PORTB.OUT CLR_B(0);      //AVR_READY=0;
0004df 91e0 0624 	LDS  R30,1572
0004e1 7fee      	ANDI R30,0xFE
0004e2 93e0 0624 	STS  1572,R30
                 ; 0000 020E                         delay_us(1);
                +
0004e4 e08b     +LDI R24 , LOW ( 11 )
                +__DELAY_USB_LOOP :
0004e5 958a     +DEC R24
0004e6 f7f1     +BRNE __DELAY_USB_LOOP
                 	__DELAY_USB 11
                 ; 0000 020F                         play = 1;
0004e7 9a00      	SBI  0x0,0
                 ; 0000 0210                         PORTB.OUT SET_B(1);                   //PORTB.1 = 1   RESET CPLD
0004e8 91e0 0624 	LDS  R30,1572
0004ea 60e2      	ORI  R30,2
0004eb 93e0 0624 	STS  1572,R30
                 ; 0000 0211                         PORTB.INT0MASK=0x08;                  // 
0004ed e0e8      	LDI  R30,LOW(8)
0004ee 93e0 062a 	STS  1578,R30
                 ; 0000 0212                         }
                 ; 0000 0213                     }
                 _0x1B:
                 ; 0000 0214                 }
                 _0x1A:
                 ; 0000 0215             }
                 _0x19:
                 ; 0000 0216         }
                 _0x18:
                 ; 0000 0217     }
                 _0x17:
                 ; 0000 0218 else
0004f0 c005      	RJMP _0x29
                 _0x16:
                 ; 0000 0219     {
                 ; 0000 021A     PORTB.OUT CLR_B(1);                                   //PORTB.1 = 0
0004f1 91e0 0624 	LDS  R30,1572
0004f3 7fed      	ANDI R30,0xFD
0004f4 93e0 0624 	STS  1572,R30
                 ; 0000 021B     }
                 _0x29:
                 ; 0000 021C 
                 ; 0000 021D while(play)
                 _0x2A:
0004f6 9b00      	SBIS 0x0,0
0004f7 c07a      	RJMP _0x2C
                 ; 0000 021E     {
                 ; 0000 021F     if(!(PORTB.OUT&1<<0))
0004f8 91e0 0624 	LDS  R30,1572
0004fa 70e1      	ANDI R30,LOW(0x1)
0004fb f569      	BRNE _0x2D
                 ; 0000 0220         {
                 ; 0000 0221         if ((res=f_read(&file,buffer_1,sizeof(buffer_1),&nbytes))==FR_OK)              ////     b ...
0004fc e3e6      	LDI  R30,LOW(_file)
0004fd e2f6      	LDI  R31,HIGH(_file)
0004fe 93fa      	ST   -Y,R31
0004ff 93ea      	ST   -Y,R30
000500 e8e2      	LDI  R30,LOW(_buffer_1)
000501 e2f8      	LDI  R31,HIGH(_buffer_1)
000502 93fa      	ST   -Y,R31
000503 93ea      	ST   -Y,R30
000504 e0e0      	LDI  R30,LOW(1536)
000505 e0f6      	LDI  R31,HIGH(1536)
000506 93fa      	ST   -Y,R31
000507 93ea      	ST   -Y,R30
000508 b7ad      	IN   R26,SPL
000509 b7be      	IN   R27,SPH
00050a 9711      	SBIW R26,1
00050b 925f      	PUSH R5
00050c 924f      	PUSH R4
00050d 940e 1a30 	CALL _f_read
00050f 904f      	POP  R4
000510 905f      	POP  R5
000511 2e3e      	MOV  R3,R30
000512 30e0      	CPI  R30,0
000513 f4a9      	BRNE _0x2E
                 ; 0000 0222             {
                 ; 0000 0223             PORTB.OUT SET_B(0);        //PORTB.0 = 1    (AVR_READY)
000514 91e0 0624 	LDS  R30,1572
000516 60e1      	ORI  R30,1
000517 93e0 0624 	STS  1572,R30
                 ; 0000 0224             if(remain==0)
000519 2c06      	MOV  R0,R6
00051a 2807      	OR   R0,R7
00051b f449      	BRNE _0x2F
                 ; 0000 0225                 {
                 ; 0000 0226                 PORTB.INT0MASK=0x00;    // 
00051c e0e0      	LDI  R30,LOW(0)
00051d 93e0 062a 	STS  1578,R30
                 ; 0000 0227                 if ((res=f_close(&file))==FR_OK)     /////////////////// 
00051f e3a6      	LDI  R26,LOW(_file)
000520 e2b6      	LDI  R27,HIGH(_file)
000521 940e 1d00 	CALL _f_close
000523 2e3e      	MOV  R3,R30
                 ; 0000 0228                     {}
                 ; 0000 0229                 }
                 ; 0000 022A             else
000524 c004      	RJMP _0x31
                 _0x2F:
                 ; 0000 022B                 {
                 ; 0000 022C                 remain--;
000525 01f3      	MOVW R30,R6
000526 9731      	SBIW R30,1
000527 013f      	MOVW R6,R30
000528 9631      	ADIW R30,1
                 ; 0000 022D                 }
                 _0x31:
                 ; 0000 022E             }
                 ; 0000 022F         }
                 _0x2E:
                 ; 0000 0230 
                 ; 0000 0231     if((PORTC.IN&1<<1 || PORTC.IN&1<<2) & stt==0)             //  NEXT or FF     PINC.1  PINC.2
                 _0x2D:
000529 91e0 0648 	LDS  R30,1608
00052b 70e2      	ANDI R30,LOW(0x2)
00052c f431      	BRNE _0x33
00052d 91e0 0648 	LDS  R30,1608
00052f 70e4      	ANDI R30,LOW(0x4)
000530 f411      	BRNE _0x33
000531 e0e0      	LDI  R30,0
000532 c001      	RJMP _0x34
                 _0x33:
000533 e0e1      	LDI  R30,1
                 _0x34:
000534 2e0e      	MOV  R0,R30
000535 e0a0      	LDI  R26,0
000536 9901      	SBIC 0x0,1
000537 e0a1      	LDI  R26,1
000538 e0e0      	LDI  R30,LOW(0)
000539 940e 20a1 	CALL __EQB12
00053b 21e0      	AND  R30,R0
00053c f131      	BREQ _0x32
                 ; 0000 0232         {
                 ; 0000 0233         PORTB.OUT CLR_B(0);      //AVR_READY=0;
00053d 91e0 0624 	LDS  R30,1572
00053f 7fee      	ANDI R30,0xFE
000540 93e0 0624 	STS  1572,R30
                 ; 0000 0234         if(PORTC.IN&1<<1)
000542 91e0 0648 	LDS  R30,1608
000544 70e2      	ANDI R30,LOW(0x2)
000545 f011      	BREQ _0x35
                 ; 0000 0235             {
                 ; 0000 0236             nxt=1;              //    
000546 9a02      	SBI  0x0,2
                 ; 0000 0237             }
                 ; 0000 0238         else
000547 c001      	RJMP _0x38
                 _0x35:
                 ; 0000 0239             {
                 ; 0000 023A             nxt=0;             //    
000548 9802      	CBI  0x0,2
                 ; 0000 023B             }
                 _0x38:
                 ; 0000 023C         fldr=PORTC.IN&1<<3;
000549 91e0 0648 	LDS  R30,1608
00054b 70e8      	ANDI R30,LOW(0x8)
00054c f411      	BRNE _0x3B
00054d 9803      	CBI  0x0,3
00054e c001      	RJMP _0x3C
                 _0x3B:
00054f 9a03      	SBI  0x0,3
                 _0x3C:
                 ; 0000 023D         play = 0;
000550 9800      	CBI  0x0,0
                 ; 0000 023E         stt = 1;
000551 9a01      	SBI  0x0,1
                 ; 0000 023F         PORTB.INT0MASK=0x00;     // 
000552 e0e0      	LDI  R30,LOW(0)
000553 93e0 062a 	STS  1578,R30
                 ; 0000 0240         if ((res=f_close(&file))==FR_OK)     /////////////////// 
000555 e3a6      	LDI  R26,LOW(_file)
000556 e2b6      	LDI  R27,HIGH(_file)
000557 940e 1d00 	CALL _f_close
000559 2e3e      	MOV  R3,R30
00055a 30e0      	CPI  R30,0
00055b f411      	BRNE _0x41
                 ; 0000 0241         b = 0;
00055c 2488      	CLR  R8
00055d 2499      	CLR  R9
                 ; 0000 0242         PORTB.OUT CLR_B(1);      //RESET   //PORTB.1 = 0
                 _0x41:
00055e 91e0 0624 	LDS  R30,1572
000560 7fed      	ANDI R30,0xFD
000561 93e0 0624 	STS  1572,R30
                 ; 0000 0243         ////delay_ms(10);           ///   .     
                 ; 0000 0244         }
                 ; 0000 0245 
                 ; 0000 0246     if((!(PORTC.IN&1<<1)) & (!(PORTC.IN&1<<2)))                           //  NEXT or FF
                 _0x32:
000563 91e0 0648 	LDS  R30,1608
000565 70e2      	ANDI R30,LOW(0x2)
000566 940e 20a6 	CALL __LNEGB1
000568 2fae      	MOV  R26,R30
000569 91e0 0648 	LDS  R30,1608
00056b 70e4      	ANDI R30,LOW(0x4)
00056c 940e 20a6 	CALL __LNEGB1
00056e 23ea      	AND  R30,R26
00056f f009      	BREQ _0x42
                 ; 0000 0247         {
                 ; 0000 0248         stt = 0;
000570 9801      	CBI  0x0,1
                 ; 0000 0249         }
                 ; 0000 024A     }
                 _0x42:
000571 cf84      	RJMP _0x2A
                 _0x2C:
                 ; 0000 024B 
                 ; 0000 024C 
                 ; 0000 024D if(fldr==1)                          /////////////////////////////////////////////////////////////    ...
000572 9b03      	SBIS 0x0,3
000573 c022      	RJMP _0x45
                 ; 0000 024E     {
                 ; 0000 024F     fldr=0;
000574 9803      	CBI  0x0,3
                 ; 0000 0250     path[15]=48;                    // Track_01
000575 e3e0      	LDI  R30,LOW(48)
                +
000576 93e0 287b+STS _path + ( 15 ) , R30
                 	__PUTB1MN _path,15
                 ; 0000 0251     path[16]=49;                    //
000578 e3e1      	LDI  R30,LOW(49)
                +
000579 93e0 287c+STS _path + ( 16 ) , R30
                 	__PUTB1MN _path,16
                 ; 0000 0252     if(nxt)
00057b 9b02      	SBIS 0x0,2
00057c c00c      	RJMP _0x48
                 ; 0000 0253         {
                 ; 0000 0254         if(path[7]==54)
                +
00057d 91a0 2873+LDS R26 , _path + ( 7 )
                 	__GETB2MN _path,7
00057f 33a6      	CPI  R26,LOW(0x36)
000580 f411      	BRNE _0x49
                 ; 0000 0255             {
                 ; 0000 0256             path[7]=49;
000581 e3e1      	LDI  R30,LOW(49)
000582 c003      	RJMP _0x5E
                 ; 0000 0257             }
                 ; 0000 0258         else
                 _0x49:
                 ; 0000 0259             {
                 ; 0000 025A             path[7]++;
                +
000583 91e0 2873+LDS R30 , _path + ( 7 )
                 	__GETB1MN _path,7
000585 5fef      	SUBI R30,-LOW(1)
                 _0x5E:
                +
000586 93e0 2873+STS _path + ( 7 ) , R30
                 	__PUTB1MN _path,7
                 ; 0000 025B             }
                 ; 0000 025C         }
                 ; 0000 025D     else
000588 c00c      	RJMP _0x4B
                 _0x48:
                 ; 0000 025E         {
                 ; 0000 025F         nxt=1;
000589 9a02      	SBI  0x0,2
                 ; 0000 0260         if(path[7]==49)
                +
00058a 91a0 2873+LDS R26 , _path + ( 7 )
                 	__GETB2MN _path,7
00058c 33a1      	CPI  R26,LOW(0x31)
00058d f411      	BRNE _0x4E
                 ; 0000 0261             {
                 ; 0000 0262             path[7]=54;
00058e e3e6      	LDI  R30,LOW(54)
00058f c003      	RJMP _0x5F
                 ; 0000 0263             }
                 ; 0000 0264         else
                 _0x4E:
                 ; 0000 0265             {
                 ; 0000 0266             path[7]--;
                +
000590 91e0 2873+LDS R30 , _path + ( 7 )
                 	__GETB1MN _path,7
000592 50e1      	SUBI R30,LOW(1)
                 _0x5F:
                +
000593 93e0 2873+STS _path + ( 7 ) , R30
                 	__PUTB1MN _path,7
                 ; 0000 0267             }
                 ; 0000 0268         }
                 _0x4B:
                 ; 0000 0269     }
                 ; 0000 026A else
000595 c03a      	RJMP _0x50
                 _0x45:
                 ; 0000 026B     {
                 ; 0000 026C     if(nxt)
000596 9b02      	SBIS 0x0,2
000597 c01d      	RJMP _0x51
                 ; 0000 026D         {
                 ; 0000 026E         if(path[16]==57)
                +
000598 91a0 287c+LDS R26 , _path + ( 16 )
                 	__GETB2MN _path,16
00059a 33a9      	CPI  R26,LOW(0x39)
00059b f499      	BRNE _0x52
                 ; 0000 026F             {
                 ; 0000 0270             path[16]=48;
00059c e3e0      	LDI  R30,LOW(48)
                +
00059d 93e0 287c+STS _path + ( 16 ) , R30
                 	__PUTB1MN _path,16
                 ; 0000 0271             if(path[15]==57)
                +
00059f 91a0 287b+LDS R26 , _path + ( 15 )
                 	__GETB2MN _path,15
0005a1 33a9      	CPI  R26,LOW(0x39)
0005a2 f431      	BRNE _0x53
                 ; 0000 0272                 {
                 ; 0000 0273                 path[15]=48;
                +
0005a3 93e0 287b+STS _path + ( 15 ) , R30
                 	__PUTB1MN _path,15
                 ; 0000 0274                 path[16]=49;
0005a5 e3e1      	LDI  R30,LOW(49)
                +
0005a6 93e0 287c+STS _path + ( 16 ) , R30
                 	__PUTB1MN _path,16
                 ; 0000 0275                 }
                 ; 0000 0276             else
0005a8 c005      	RJMP _0x54
                 _0x53:
                 ; 0000 0277                 {
                 ; 0000 0278                 path[15]++;
                +
0005a9 91e0 287b+LDS R30 , _path + ( 15 )
                 	__GETB1MN _path,15
0005ab 5fef      	SUBI R30,-LOW(1)
                +
0005ac 93e0 287b+STS _path + ( 15 ) , R30
                 	__PUTB1MN _path,15
                 ; 0000 0279                 }
                 _0x54:
                 ; 0000 027A             }
                 ; 0000 027B         else
0005ae c005      	RJMP _0x55
                 _0x52:
                 ; 0000 027C             {
                 ; 0000 027D             path[16]++;
                +
0005af 91e0 287c+LDS R30 , _path + ( 16 )
                 	__GETB1MN _path,16
0005b1 5fef      	SUBI R30,-LOW(1)
                +
0005b2 93e0 287c+STS _path + ( 16 ) , R30
                 	__PUTB1MN _path,16
                 ; 0000 027E             }
                 _0x55:
                 ; 0000 027F         }
                 ; 0000 0280     else
0005b4 c01b      	RJMP _0x56
                 _0x51:
                 ; 0000 0281         {
                 ; 0000 0282         if(path[16]==48)
                +
0005b5 91a0 287c+LDS R26 , _path + ( 16 )
                 	__GETB2MN _path,16
0005b7 33a0      	CPI  R26,LOW(0x30)
0005b8 f491      	BRNE _0x57
                 ; 0000 0283             {
                 ; 0000 0284             path[16]=57;
0005b9 e3e9      	LDI  R30,LOW(57)
                +
0005ba 93e0 287c+STS _path + ( 16 ) , R30
                 	__PUTB1MN _path,16
                 ; 0000 0285             if(path[15]==48)
                +
0005bc 91a0 287b+LDS R26 , _path + ( 15 )
                 	__GETB2MN _path,15
0005be 33a0      	CPI  R26,LOW(0x30)
0005bf f429      	BRNE _0x58
                 ; 0000 0286                 {
                 ; 0000 0287                 path[15]=57;
                +
0005c0 93e0 287b+STS _path + ( 15 ) , R30
                 	__PUTB1MN _path,15
                 ; 0000 0288                 path[16]=57;
                +
0005c2 93e0 287c+STS _path + ( 16 ) , R30
                 	__PUTB1MN _path,16
                 ; 0000 0289                 }
                 ; 0000 028A             else
0005c4 c005      	RJMP _0x59
                 _0x58:
                 ; 0000 028B                 {
                 ; 0000 028C                 path[15]--;
                +
0005c5 91e0 287b+LDS R30 , _path + ( 15 )
                 	__GETB1MN _path,15
0005c7 50e1      	SUBI R30,LOW(1)
                +
0005c8 93e0 287b+STS _path + ( 15 ) , R30
                 	__PUTB1MN _path,15
                 ; 0000 028D                 }
                 _0x59:
                 ; 0000 028E             }
                 ; 0000 028F         else
0005ca c005      	RJMP _0x5A
                 _0x57:
                 ; 0000 0290             {
                 ; 0000 0291             path[16]--;
                +
0005cb 91e0 287c+LDS R30 , _path + ( 16 )
                 	__GETB1MN _path,16
0005cd 50e1      	SUBI R30,LOW(1)
                +
0005ce 93e0 287c+STS _path + ( 16 ) , R30
                 	__PUTB1MN _path,16
                 ; 0000 0292             }
                 _0x5A:
                 ; 0000 0293         }
                 _0x56:
                 ; 0000 0294     }
                 _0x50:
                 ; 0000 0295 }
0005d0 cd3e      	RJMP _0x13
                 ; 0000 0296 }
                 _0x5B:
0005d1 cfff      	RJMP _0x5B
                 ; .FEND
                 ;
                 ;
                 
                 	.DSEG
                 
                 	.CSEG
                 _crc7_G100:
                 ; .FSTART _crc7_G100
0005d2 93aa      	ST   -Y,R26
0005d3 940e 2176 	CALL __SAVELOCR4
0005d5 e020      	LDI  R18,LOW(0)
0005d6 810c      	LDD  R16,Y+4
                 _0x2000005:
0005d7 81ad      	LDD  R26,Y+5
0005d8 81be      	LDD  R27,Y+5+1
0005d9 913d      	LD   R19,X+
0005da 83ad      	STD  Y+5,R26
0005db 83be      	STD  Y+5+1,R27
0005dc e018      	LDI  R17,LOW(8)
                 _0x2000008:
0005dd 0f22      	LSL  R18
0005de 2fe2      	MOV  R30,R18
0005df 27e3      	EOR  R30,R19
0005e0 78e0      	ANDI R30,LOW(0x80)
0005e1 f011      	BREQ _0x200000A
0005e2 e0e9      	LDI  R30,LOW(9)
0005e3 272e      	EOR  R18,R30
                 _0x200000A:
0005e4 0f33      	LSL  R19
0005e5 5011      	SUBI R17,LOW(1)
0005e6 f7b1      	BRNE _0x2000008
0005e7 5001      	SUBI R16,LOW(1)
0005e8 f771      	BRNE _0x2000005
0005e9 2fe2      	MOV  R30,R18
0005ea 0fee      	LSL  R30
0005eb 60e1      	ORI  R30,1
0005ec 940e 217d 	CALL __LOADLOCR4
0005ee c571      	RJMP _0x20C0014
                 ; .FEND
                 _wait_ready_G100:
                 ; .FSTART _wait_ready_G100
0005ef 931a      	ST   -Y,R17
0005f0 e3e2      	LDI  R30,LOW(50)
0005f1 93e0 2ed2 	STS  _timer2_G100,R30
0005f3 efef      	LDI  R30,LOW(255)
0005f4 93e0 08c3 	STS  2243,R30
                 _0x200000B:
0005f6 91e0 08c2 	LDS  R30,2242
0005f8 78e0      	ANDI R30,LOW(0x80)
0005f9 f3e1      	BREQ _0x200000B
                 _0x200000F:
0005fa efef      	LDI  R30,LOW(255)
0005fb 93e0 08c3 	STS  2243,R30
                 _0x2000011:
0005fd 91e0 08c2 	LDS  R30,2242
0005ff 78e0      	ANDI R30,LOW(0x80)
000600 f3e1      	BREQ _0x2000011
000601 9110 08c3 	LDS  R17,2243
000603 3f1f      	CPI  R17,255
000604 f021      	BREQ _0x2000014
000605 91e0 2ed2 	LDS  R30,_timer2_G100
000607 30e0      	CPI  R30,0
000608 f409      	BRNE _0x2000015
                 _0x2000014:
000609 c001      	RJMP _0x2000010
                 _0x2000015:
00060a cfef      	RJMP _0x200000F
                 _0x2000010:
00060b 2fe1      	MOV  R30,R17
00060c c4c9      	RJMP _0x20C0015
                 ; .FEND
                 _deselect_card_G100:
                 ; .FSTART _deselect_card_G100
00060d e1e0      	LDI  R30,LOW(16)
00060e 93e0 0645 	STS  1605,R30
000610 efef      	LDI  R30,LOW(255)
000611 93e0 08c3 	STS  2243,R30
                 _0x2000016:
000613 91e0 08c2 	LDS  R30,2242
000615 78e0      	ANDI R30,LOW(0x80)
000616 f3e1      	BREQ _0x2000016
000617 9508      	RET
                 ; .FEND
                 _rx_datablock_G100:
                 ; .FSTART _rx_datablock_G100
000618 93ba      	ST   -Y,R27
000619 93aa      	ST   -Y,R26
00061a 940e 2176 	CALL __SAVELOCR4
00061c e1e4      	LDI  R30,LOW(20)
00061d 93e0 2ed1 	STS  _timer1_G100,R30
                 _0x200001A:
00061f efef      	LDI  R30,LOW(255)
000620 93e0 08c3 	STS  2243,R30
                 _0x200001C:
000622 91e0 08c2 	LDS  R30,2242
000624 78e0      	ANDI R30,LOW(0x80)
000625 f3e1      	BREQ _0x200001C
000626 9110 08c3 	LDS  R17,2243
000628 3f1f      	CPI  R17,255
000629 f421      	BRNE _0x200001F
00062a 91e0 2ed1 	LDS  R30,_timer1_G100
00062c 30e0      	CPI  R30,0
00062d f409      	BRNE _0x2000020
                 _0x200001F:
00062e c001      	RJMP _0x200001B
                 _0x2000020:
00062f cfef      	RJMP _0x200001A
                 _0x200001B:
000630 3f1e      	CPI  R17,254
000631 f021      	BREQ _0x2000021
000632 e0e0      	LDI  R30,LOW(0)
000633 940e 217d 	CALL __LOADLOCR4
000635 c2f1      	RJMP _0x20C0017
                 _0x2000021:
                +
000636 812e     +LDD R18 , Y + 6
000637 813f     +LDD R19 , Y + 6 + 1
                 	__GETWRS 18,19,6
                 _0x2000023:
000638 efef      	LDI  R30,LOW(255)
000639 93e0 08c3 	STS  2243,R30
                 _0x2000025:
00063b 91e0 08c2 	LDS  R30,2242
00063d 78e0      	ANDI R30,LOW(0x80)
00063e f3e1      	BREQ _0x2000025
00063f 933f      	PUSH R19
000640 932f      	PUSH R18
                +
000641 5f2f     +SUBI R18 , LOW ( - 1 )
000642 4f3f     +SBCI R19 , HIGH ( - 1 )
                 	__ADDWRN 18,19,1
000643 91e0 08c3 	LDS  R30,2243
000645 91af      	POP  R26
000646 91bf      	POP  R27
000647 93ec      	ST   X,R30
000648 efef      	LDI  R30,LOW(255)
000649 93e0 08c3 	STS  2243,R30
                 _0x2000028:
00064b 91e0 08c2 	LDS  R30,2242
00064d 78e0      	ANDI R30,LOW(0x80)
00064e f3e1      	BREQ _0x2000028
00064f 933f      	PUSH R19
000650 932f      	PUSH R18
                +
000651 5f2f     +SUBI R18 , LOW ( - 1 )
000652 4f3f     +SBCI R19 , HIGH ( - 1 )
                 	__ADDWRN 18,19,1
000653 91e0 08c3 	LDS  R30,2243
000655 91af      	POP  R26
000656 91bf      	POP  R27
000657 93ec      	ST   X,R30
000658 efef      	LDI  R30,LOW(255)
000659 93e0 08c3 	STS  2243,R30
                 _0x200002B:
00065b 91e0 08c2 	LDS  R30,2242
00065d 78e0      	ANDI R30,LOW(0x80)
00065e f3e1      	BREQ _0x200002B
00065f 933f      	PUSH R19
000660 932f      	PUSH R18
                +
000661 5f2f     +SUBI R18 , LOW ( - 1 )
000662 4f3f     +SBCI R19 , HIGH ( - 1 )
                 	__ADDWRN 18,19,1
000663 91e0 08c3 	LDS  R30,2243
000665 91af      	POP  R26
000666 91bf      	POP  R27
000667 93ec      	ST   X,R30
000668 efef      	LDI  R30,LOW(255)
000669 93e0 08c3 	STS  2243,R30
                 _0x200002E:
00066b 91e0 08c2 	LDS  R30,2242
00066d 78e0      	ANDI R30,LOW(0x80)
00066e f3e1      	BREQ _0x200002E
00066f 933f      	PUSH R19
000670 932f      	PUSH R18
                +
000671 5f2f     +SUBI R18 , LOW ( - 1 )
000672 4f3f     +SBCI R19 , HIGH ( - 1 )
                 	__ADDWRN 18,19,1
000673 91e0 08c3 	LDS  R30,2243
000675 91af      	POP  R26
000676 91bf      	POP  R27
000677 93ec      	ST   X,R30
000678 81ec      	LDD  R30,Y+4
000679 81fd      	LDD  R31,Y+4+1
00067a 9734      	SBIW R30,4
00067b 83ec      	STD  Y+4,R30
00067c 83fd      	STD  Y+4+1,R31
00067d f009      	BREQ _0x2000024
00067e cfb9      	RJMP _0x2000023
                 _0x2000024:
00067f efef      	LDI  R30,LOW(255)
000680 93e0 08c3 	STS  2243,R30
                 _0x2000031:
000682 91e0 08c2 	LDS  R30,2242
000684 78e0      	ANDI R30,LOW(0x80)
000685 f3e1      	BREQ _0x2000031
000686 efef      	LDI  R30,LOW(255)
000687 93e0 08c3 	STS  2243,R30
                 _0x2000034:
000689 91e0 08c2 	LDS  R30,2242
00068b 78e0      	ANDI R30,LOW(0x80)
00068c f3e1      	BREQ _0x2000034
00068d e0e1      	LDI  R30,LOW(1)
00068e 940e 217d 	CALL __LOADLOCR4
000690 c296      	RJMP _0x20C0017
                 ; .FEND
                 _tx_datablock_G100:
                 ; .FSTART _tx_datablock_G100
000691 93aa      	ST   -Y,R26
000692 940e 2176 	CALL __SAVELOCR4
000694 df5a      	RCALL _wait_ready_G100
000695 3fef      	CPI  R30,LOW(0xFF)
000696 f021      	BREQ _0x2000037
000697 e0e0      	LDI  R30,LOW(0)
000698 940e 217d 	CALL __LOADLOCR4
00069a c4c5      	RJMP _0x20C0014
                 _0x2000037:
00069b 81ec      	LDD  R30,Y+4
00069c 93e0 08c3 	STS  2243,R30
                 _0x2000038:
00069e 91e0 08c2 	LDS  R30,2242
0006a0 78e0      	ANDI R30,LOW(0x80)
0006a1 f3e1      	BREQ _0x2000038
0006a2 81ac      	LDD  R26,Y+4
0006a3 3fad      	CPI  R26,LOW(0xFD)
0006a4 f1c1      	BREQ _0x200003B
0006a5 e000      	LDI  R16,LOW(0)
                +
0006a6 812d     +LDD R18 , Y + 5
0006a7 813e     +LDD R19 , Y + 5 + 1
                 	__GETWRS 18,19,5
                 _0x200003D:
0006a8 01d9      	MOVW R26,R18
                +
0006a9 5f2f     +SUBI R18 , LOW ( - 1 )
0006aa 4f3f     +SBCI R19 , HIGH ( - 1 )
                 	__ADDWRN 18,19,1
0006ab 91ec      	LD   R30,X
0006ac 93e0 08c3 	STS  2243,R30
                 _0x200003F:
0006ae 91e0 08c2 	LDS  R30,2242
0006b0 78e0      	ANDI R30,LOW(0x80)
0006b1 f3e1      	BREQ _0x200003F
0006b2 01d9      	MOVW R26,R18
                +
0006b3 5f2f     +SUBI R18 , LOW ( - 1 )
0006b4 4f3f     +SBCI R19 , HIGH ( - 1 )
                 	__ADDWRN 18,19,1
0006b5 91ec      	LD   R30,X
0006b6 93e0 08c3 	STS  2243,R30
                 _0x2000042:
0006b8 91e0 08c2 	LDS  R30,2242
0006ba 78e0      	ANDI R30,LOW(0x80)
0006bb f3e1      	BREQ _0x2000042
0006bc 5001      	SUBI R16,LOW(1)
0006bd f751      	BRNE _0x200003D
0006be efef      	LDI  R30,LOW(255)
0006bf 93e0 08c3 	STS  2243,R30
                 _0x2000045:
0006c1 91e0 08c2 	LDS  R30,2242
0006c3 78e0      	ANDI R30,LOW(0x80)
0006c4 f3e1      	BREQ _0x2000045
0006c5 efef      	LDI  R30,LOW(255)
0006c6 93e0 08c3 	STS  2243,R30
                 _0x2000048:
0006c8 91e0 08c2 	LDS  R30,2242
0006ca 78e0      	ANDI R30,LOW(0x80)
0006cb f3e1      	BREQ _0x2000048
0006cc efef      	LDI  R30,LOW(255)
0006cd 93e0 08c3 	STS  2243,R30
                 _0x200004B:
0006cf 91e0 08c2 	LDS  R30,2242
0006d1 78e0      	ANDI R30,LOW(0x80)
0006d2 f3e1      	BREQ _0x200004B
0006d3 9110 08c3 	LDS  R17,2243
0006d5 2fe1      	MOV  R30,R17
0006d6 71ef      	ANDI R30,LOW(0x1F)
0006d7 30e5      	CPI  R30,LOW(0x5)
0006d8 f021      	BREQ _0x200004E
0006d9 e0e0      	LDI  R30,LOW(0)
0006da 940e 217d 	CALL __LOADLOCR4
0006dc c483      	RJMP _0x20C0014
                 _0x200004E:
                 _0x200003B:
0006dd e0e1      	LDI  R30,LOW(1)
0006de 940e 217d 	CALL __LOADLOCR4
0006e0 c47f      	RJMP _0x20C0014
                 ; .FEND
                 _send_cmd_G100:
                 ; .FSTART _send_cmd_G100
0006e1 940e 214e 	CALL __PUTPARD2
0006e3 931a      	ST   -Y,R17
0006e4 930a      	ST   -Y,R16
0006e5 81ee      	LDD  R30,Y+6
0006e6 78e0      	ANDI R30,LOW(0x80)
0006e7 f081      	BREQ _0x200004F
0006e8 81ee      	LDD  R30,Y+6
0006e9 77ef      	ANDI R30,0x7F
0006ea 83ee      	STD  Y+6,R30
0006eb e7e7      	LDI  R30,LOW(119)
0006ec 93ea      	ST   -Y,R30
                +
0006ed e0a0     +LDI R26 , LOW ( 0x0 )
0006ee e0b0     +LDI R27 , HIGH ( 0x0 )
0006ef e080     +LDI R24 , BYTE3 ( 0x0 )
0006f0 e090     +LDI R25 , BYTE4 ( 0x0 )
                 	__GETD2N 0x0
0006f1 dfef      	RCALL _send_cmd_G100
0006f2 2f0e      	MOV  R16,R30
0006f3 3002      	CPI  R16,2
0006f4 f018      	BRLO _0x2000050
0006f5 8119      	LDD  R17,Y+1
0006f6 8108      	LDD  R16,Y+0
0006f7 c468      	RJMP _0x20C0014
                 _0x2000050:
                 _0x200004F:
0006f8 81ae      	LDD  R26,Y+6
0006f9 34ac      	CPI  R26,LOW(0x4C)
0006fa f059      	BREQ _0x2000051
0006fb df11      	RCALL _deselect_card_G100
0006fc e1e0      	LDI  R30,LOW(16)
0006fd 93e0 0646 	STS  1606,R30
0006ff deef      	RCALL _wait_ready_G100
000700 3fef      	CPI  R30,LOW(0xFF)
000701 f021      	BREQ _0x2000052
000702 efef      	LDI  R30,LOW(255)
000703 8119      	LDD  R17,Y+1
000704 8108      	LDD  R16,Y+0
000705 c45a      	RJMP _0x20C0014
                 _0x2000052:
                 _0x2000051:
000706 81ee      	LDD  R30,Y+6
000707 93e0 08c3 	STS  2243,R30
                 _0x2000053:
000709 91e0 08c2 	LDS  R30,2242
00070b 78e0      	ANDI R30,LOW(0x80)
00070c f3e1      	BREQ _0x2000053
00070d 81ed      	LDD  R30,Y+5
00070e 93e0 08c3 	STS  2243,R30
                 _0x2000056:
000710 91e0 08c2 	LDS  R30,2242
000712 78e0      	ANDI R30,LOW(0x80)
000713 f3e1      	BREQ _0x2000056
000714 81ec      	LDD  R30,Y+4
000715 93e0 08c3 	STS  2243,R30
                 _0x2000059:
000717 91e0 08c2 	LDS  R30,2242
000719 78e0      	ANDI R30,LOW(0x80)
00071a f3e1      	BREQ _0x2000059
00071b 81eb      	LDD  R30,Y+3
00071c 93e0 08c3 	STS  2243,R30
                 _0x200005C:
00071e 91e0 08c2 	LDS  R30,2242
000720 78e0      	ANDI R30,LOW(0x80)
000721 f3e1      	BREQ _0x200005C
000722 81ea      	LDD  R30,Y+2
000723 93e0 08c3 	STS  2243,R30
                 _0x200005F:
000725 91e0 08c2 	LDS  R30,2242
000727 78e0      	ANDI R30,LOW(0x80)
000728 f3e1      	BREQ _0x200005F
000729 e011      	LDI  R17,LOW(1)
00072a 81ae      	LDD  R26,Y+6
00072b 34a0      	CPI  R26,LOW(0x40)
00072c f411      	BRNE _0x2000062
00072d e915      	LDI  R17,LOW(149)
00072e c004      	RJMP _0x2000063
                 _0x2000062:
00072f 81ae      	LDD  R26,Y+6
000730 34a8      	CPI  R26,LOW(0x48)
000731 f409      	BRNE _0x2000064
000732 e817      	LDI  R17,LOW(135)
                 _0x2000064:
                 _0x2000063:
000733 9310 08c3 	STS  2243,R17
                 _0x2000065:
000735 91e0 08c2 	LDS  R30,2242
000737 78e0      	ANDI R30,LOW(0x80)
000738 f3e1      	BREQ _0x2000065
000739 81ae      	LDD  R26,Y+6
00073a 34ac      	CPI  R26,LOW(0x4C)
00073b f439      	BRNE _0x2000068
00073c efef      	LDI  R30,LOW(255)
00073d 93e0 08c3 	STS  2243,R30
                 _0x2000069:
00073f 91e0 08c2 	LDS  R30,2242
000741 78e0      	ANDI R30,LOW(0x80)
000742 f3e1      	BREQ _0x2000069
                 _0x2000068:
000743 ef1f      	LDI  R17,LOW(255)
                 _0x200006D:
000744 efef      	LDI  R30,LOW(255)
000745 93e0 08c3 	STS  2243,R30
                 _0x200006F:
000747 91e0 08c2 	LDS  R30,2242
000749 78e0      	ANDI R30,LOW(0x80)
00074a f3e1      	BREQ _0x200006F
00074b 9100 08c3 	LDS  R16,2243
00074d ff07      	SBRS R16,7
00074e c002      	RJMP _0x2000072
00074f 5011      	SUBI R17,LOW(1)
000750 f409      	BRNE _0x2000073
                 _0x2000072:
000751 c001      	RJMP _0x200006E
                 _0x2000073:
000752 cff1      	RJMP _0x200006D
                 _0x200006E:
000753 2fe0      	MOV  R30,R16
000754 8119      	LDD  R17,Y+1
000755 8108      	LDD  R16,Y+0
000756 c409      	RJMP _0x20C0014
                 ; .FEND
                 _rx_spi4_G100:
                 ; .FSTART _rx_spi4_G100
000757 93ba      	ST   -Y,R27
000758 93aa      	ST   -Y,R26
000759 931a      	ST   -Y,R17
00075a e014      	LDI  R17,4
                 _0x2000075:
00075b efef      	LDI  R30,LOW(255)
00075c 93e0 08c3 	STS  2243,R30
                 _0x2000077:
00075e 91e0 08c2 	LDS  R30,2242
000760 78e0      	ANDI R30,LOW(0x80)
000761 f3e1      	BREQ _0x2000077
000762 81a9      	LDD  R26,Y+1
000763 81ba      	LDD  R27,Y+1+1
000764 9611      	ADIW R26,1
000765 83a9      	STD  Y+1,R26
000766 83ba      	STD  Y+1+1,R27
000767 9711      	SBIW R26,1
000768 91e0 08c3 	LDS  R30,2243
00076a 93ec      	ST   X,R30
00076b 5011      	SUBI R17,LOW(1)
00076c f771      	BRNE _0x2000075
00076d c537      	RJMP _0x20C0012
                 ; .FEND
                 _disk_initialize:
                 ; .FSTART _disk_initialize
00076e 93aa      	ST   -Y,R26
00076f 9724      	SBIW R28,4
000770 940e 2176 	CALL __SAVELOCR4
000772 85e8      	LDD  R30,Y+8
000773 30e0      	CPI  R30,0
000774 f011      	BREQ _0x200007A
000775 e0e1      	LDI  R30,LOW(1)
000776 c0c9      	RJMP _0x20C001A
                 _0x200007A:
000777 e0ea      	LDI  R30,LOW(10)
000778 93e0 2ed1 	STS  _timer1_G100,R30
                 _0x200007B:
00077a 91e0 2ed1 	LDS  R30,_timer1_G100
00077c 30e0      	CPI  R30,0
00077d f7e1      	BRNE _0x200007B
00077e 91e0 2ed0 	LDS  R30,_status_G100
000780 70e2      	ANDI R30,LOW(0x2)
000781 f009      	BREQ _0x200007E
000782 c0bb      	RJMP _0x20C0019
                 _0x200007E:
000783 e1e0      	LDI  R30,LOW(16)
000784 93e0 0641 	STS  1601,R30
000786 93e0 0645 	STS  1605,R30
000788 eae0      	LDI  R30,LOW(160)
000789 93e0 0646 	STS  1606,R30
00078b e4e0      	LDI  R30,LOW(64)
00078c 93e0 0642 	STS  1602,R30
00078e e1e8      	LDI  R30,LOW(24)
00078f 93e0 0656 	STS  1622,R30
000791 ebe0      	LDI  R30,LOW(176)
000792 93e0 0641 	STS  1601,R30
000794 e5e3      	LDI  R30,LOW(83)
000795 93e0 08c0 	STS  2240,R30
000797 e035      	LDI  R19,LOW(5)
                 _0x2000080:
000798 e01a      	LDI  R17,LOW(10)
                 _0x2000083:
000799 efef      	LDI  R30,LOW(255)
00079a 93e0 08c3 	STS  2243,R30
                 _0x2000085:
00079c 91e0 08c2 	LDS  R30,2242
00079e 78e0      	ANDI R30,LOW(0x80)
00079f f3e1      	BREQ _0x2000085
0007a0 5011      	SUBI R17,LOW(1)
0007a1 f7b9      	BRNE _0x2000083
0007a2 e4e0      	LDI  R30,LOW(64)
0007a3 93ea      	ST   -Y,R30
                +
0007a4 e0a0     +LDI R26 , LOW ( 0x0 )
0007a5 e0b0     +LDI R27 , HIGH ( 0x0 )
0007a6 e080     +LDI R24 , BYTE3 ( 0x0 )
0007a7 e090     +LDI R25 , BYTE4 ( 0x0 )
                 	__GETD2N 0x0
0007a8 df38      	RCALL _send_cmd_G100
0007a9 2f0e      	MOV  R16,R30
0007aa 5031      	SUBI R19,LOW(1)
0007ab 3001      	CPI  R16,1
0007ac f011      	BREQ _0x2000088
0007ad 3030      	CPI  R19,0
0007ae f409      	BRNE _0x2000089
                 _0x2000088:
0007af c001      	RJMP _0x2000081
                 _0x2000089:
0007b0 cfe7      	RJMP _0x2000080
                 _0x2000081:
0007b1 e030      	LDI  R19,LOW(0)
0007b2 3001      	CPI  R16,1
0007b3 f009      	BREQ PC+2
0007b4 c068      	RJMP _0x200008A
0007b5 e6e4      	LDI  R30,LOW(100)
0007b6 93e0 2ed1 	STS  _timer1_G100,R30
0007b8 e4e8      	LDI  R30,LOW(72)
0007b9 93ea      	ST   -Y,R30
                +
0007ba eaaa     +LDI R26 , LOW ( 0x1AA )
0007bb e0b1     +LDI R27 , HIGH ( 0x1AA )
0007bc e080     +LDI R24 , BYTE3 ( 0x1AA )
0007bd e090     +LDI R25 , BYTE4 ( 0x1AA )
                 	__GETD2N 0x1AA
0007be df22      	RCALL _send_cmd_G100
0007bf 30e1      	CPI  R30,LOW(0x1)
0007c0 f591      	BRNE _0x200008B
0007c1 01de      	MOVW R26,R28
0007c2 9614      	ADIW R26,4
0007c3 df93      	RCALL _rx_spi4_G100
0007c4 81ae      	LDD  R26,Y+6
0007c5 30a1      	CPI  R26,LOW(0x1)
0007c6 f419      	BRNE _0x200008D
0007c7 81af      	LDD  R26,Y+7
0007c8 3aaa      	CPI  R26,LOW(0xAA)
0007c9 f009      	BREQ _0x200008E
                 _0x200008D:
0007ca c027      	RJMP _0x200008C
                 _0x200008E:
                 _0x200008F:
0007cb 91e0 2ed1 	LDS  R30,_timer1_G100
0007cd 30e0      	CPI  R30,0
0007ce f049      	BREQ _0x2000092
0007cf eee9      	LDI  R30,LOW(233)
0007d0 93ea      	ST   -Y,R30
                +
0007d1 e0a0     +LDI R26 , LOW ( 0x40000000 )
0007d2 e0b0     +LDI R27 , HIGH ( 0x40000000 )
0007d3 e080     +LDI R24 , BYTE3 ( 0x40000000 )
0007d4 e490     +LDI R25 , BYTE4 ( 0x40000000 )
                 	__GETD2N 0x40000000
0007d5 df0b      	RCALL _send_cmd_G100
0007d6 30e0      	CPI  R30,0
0007d7 f409      	BRNE _0x2000093
                 _0x2000092:
0007d8 c001      	RJMP _0x2000091
                 _0x2000093:
0007d9 cff1      	RJMP _0x200008F
                 _0x2000091:
0007da 91e0 2ed1 	LDS  R30,_timer1_G100
0007dc 30e0      	CPI  R30,0
0007dd f049      	BREQ _0x2000095
0007de e7ea      	LDI  R30,LOW(122)
0007df 93ea      	ST   -Y,R30
                +
0007e0 e0a0     +LDI R26 , LOW ( 0x0 )
0007e1 e0b0     +LDI R27 , HIGH ( 0x0 )
0007e2 e080     +LDI R24 , BYTE3 ( 0x0 )
0007e3 e090     +LDI R25 , BYTE4 ( 0x0 )
                 	__GETD2N 0x0
0007e4 defc      	RCALL _send_cmd_G100
0007e5 30e0      	CPI  R30,0
0007e6 f009      	BREQ _0x2000096
                 _0x2000095:
0007e7 c00a      	RJMP _0x2000094
                 _0x2000096:
0007e8 01de      	MOVW R26,R28
0007e9 9614      	ADIW R26,4
0007ea df6c      	RCALL _rx_spi4_G100
0007eb 81ec      	LDD  R30,Y+4
0007ec 74e0      	ANDI R30,LOW(0x40)
0007ed f011      	BREQ _0x2000097
0007ee e0ec      	LDI  R30,LOW(12)
0007ef c001      	RJMP _0x2000098
                 _0x2000097:
0007f0 e0e4      	LDI  R30,LOW(4)
                 _0x2000098:
0007f1 2f3e      	MOV  R19,R30
                 _0x2000094:
                 _0x200008C:
0007f2 c02a      	RJMP _0x200009A
                 _0x200008B:
0007f3 eee9      	LDI  R30,LOW(233)
0007f4 93ea      	ST   -Y,R30
                +
0007f5 e0a0     +LDI R26 , LOW ( 0x0 )
0007f6 e0b0     +LDI R27 , HIGH ( 0x0 )
0007f7 e080     +LDI R24 , BYTE3 ( 0x0 )
0007f8 e090     +LDI R25 , BYTE4 ( 0x0 )
                 	__GETD2N 0x0
0007f9 dee7      	RCALL _send_cmd_G100
0007fa 30e2      	CPI  R30,LOW(0x2)
0007fb f418      	BRSH _0x200009B
0007fc e032      	LDI  R19,LOW(2)
0007fd ee09      	LDI  R16,LOW(233)
0007fe c002      	RJMP _0x200009C
                 _0x200009B:
0007ff e031      	LDI  R19,LOW(1)
000800 e401      	LDI  R16,LOW(65)
                 _0x200009C:
                 _0x200009D:
000801 91e0 2ed1 	LDS  R30,_timer1_G100
000803 30e0      	CPI  R30,0
000804 f041      	BREQ _0x20000A0
000805 930a      	ST   -Y,R16
                +
000806 e0a0     +LDI R26 , LOW ( 0x0 )
000807 e0b0     +LDI R27 , HIGH ( 0x0 )
000808 e080     +LDI R24 , BYTE3 ( 0x0 )
000809 e090     +LDI R25 , BYTE4 ( 0x0 )
                 	__GETD2N 0x0
00080a ded6      	RCALL _send_cmd_G100
00080b 30e0      	CPI  R30,0
00080c f409      	BRNE _0x20000A1
                 _0x20000A0:
00080d c001      	RJMP _0x200009F
                 _0x20000A1:
00080e cff2      	RJMP _0x200009D
                 _0x200009F:
00080f 91e0 2ed1 	LDS  R30,_timer1_G100
000811 30e0      	CPI  R30,0
000812 f049      	BREQ _0x20000A3
000813 e5e0      	LDI  R30,LOW(80)
000814 93ea      	ST   -Y,R30
                +
000815 e0a0     +LDI R26 , LOW ( 0x200 )
000816 e0b2     +LDI R27 , HIGH ( 0x200 )
000817 e080     +LDI R24 , BYTE3 ( 0x200 )
000818 e090     +LDI R25 , BYTE4 ( 0x200 )
                 	__GETD2N 0x200
000819 dec7      	RCALL _send_cmd_G100
00081a 30e0      	CPI  R30,0
00081b f009      	BREQ _0x20000A2
                 _0x20000A3:
00081c e030      	LDI  R19,LOW(0)
                 _0x20000A2:
                 _0x200009A:
                 _0x200008A:
00081d 9330 2ed3 	STS  _card_type_G100,R19
00081f dded      	RCALL _deselect_card_G100
000820 3030      	CPI  R19,0
000821 f049      	BREQ _0x20000A5
000822 91e0 2ed0 	LDS  R30,_status_G100
000824 7fee      	ANDI R30,0xFE
000825 93e0 2ed0 	STS  _status_G100,R30
000827 ede0      	LDI  R30,LOW(208)
000828 93e0 08c0 	STS  2240,R30
00082a c013      	RJMP _0x20000A6
                 _0x20000A5:
00082b e1e0      	LDI  R30,LOW(16)
00082c 93e0 0646 	STS  1606,R30
00082e ddc0      	RCALL _wait_ready_G100
00082f dddd      	RCALL _deselect_card_G100
000830 e0e0      	LDI  R30,LOW(0)
000831 93e0 08c0 	STS  2240,R30
000833 efe0      	LDI  R30,LOW(240)
000834 93e0 0642 	STS  1602,R30
000836 e1e0      	LDI  R30,LOW(16)
000837 93e0 0642 	STS  1602,R30
000839 91e0 2ed0 	LDS  R30,_status_G100
00083b 60e1      	ORI  R30,1
00083c 93e0 2ed0 	STS  _status_G100,R30
                 _0x20000A6:
                 _0x20C0019:
00083e 91e0 2ed0 	LDS  R30,_status_G100
                 _0x20C001A:
000840 940e 217d 	CALL __LOADLOCR4
000842 9629      	ADIW R28,9
000843 9508      	RET
                 ; .FEND
                 _disk_status:
                 ; .FSTART _disk_status
000844 93aa      	ST   -Y,R26
000845 81e8      	LD   R30,Y
000846 30e0      	CPI  R30,0
000847 f011      	BREQ _0x20000A7
000848 e0e1      	LDI  R30,LOW(1)
000849 c002      	RJMP _0x20C0018
                 _0x20000A7:
00084a 91e0 2ed0 	LDS  R30,_status_G100
                 _0x20C0018:
00084c 9621      	ADIW R28,1
00084d 9508      	RET
                 ; .FEND
                 _disk_read:
                 ; .FSTART _disk_read
00084e 93aa      	ST   -Y,R26
00084f 81ef      	LDD  R30,Y+7
000850 30e0      	CPI  R30,0
000851 f419      	BRNE _0x20000A9
000852 81e8      	LD   R30,Y
000853 30e0      	CPI  R30,0
000854 f411      	BRNE _0x20000A8
                 _0x20000A9:
000855 e0e4      	LDI  R30,LOW(4)
000856 c0d0      	RJMP _0x20C0017
                 _0x20000A8:
000857 91e0 2ed0 	LDS  R30,_status_G100
000859 70e1      	ANDI R30,LOW(0x1)
00085a f011      	BREQ _0x20000AB
00085b e0e3      	LDI  R30,LOW(3)
00085c c0ca      	RJMP _0x20C0017
                 _0x20000AB:
00085d 91e0 2ed3 	LDS  R30,_card_type_G100
00085f 70e8      	ANDI R30,LOW(0x8)
000860 f471      	BRNE _0x20000AC
                +
000861 81e9     +LDD R30 , Y + 1
000862 81fa     +LDD R31 , Y + 1 + 1
000863 816b     +LDD R22 , Y + 1 + 2
000864 817c     +LDD R23 , Y + 1 + 3
                 	__GETD1S 1
                +
000865 e0a0     +LDI R26 , LOW ( 0x200 )
000866 e0b2     +LDI R27 , HIGH ( 0x200 )
000867 e080     +LDI R24 , BYTE3 ( 0x200 )
000868 e090     +LDI R25 , BYTE4 ( 0x200 )
                 	__GETD2N 0x200
000869 940e 20ab 	CALL __MULD12U
                +
00086b 83e9     +STD Y + 1 , R30
00086c 83fa     +STD Y + 1 + 1 , R31
00086d 836b     +STD Y + 1 + 2 , R22
00086e 837c     +STD Y + 1 + 3 , R23
                 	__PUTD1S 1
                 _0x20000AC:
00086f 81a8      	LD   R26,Y
000870 30a1      	CPI  R26,LOW(0x1)
000871 f4a9      	BRNE _0x20000AD
000872 e5e1      	LDI  R30,LOW(81)
000873 93ea      	ST   -Y,R30
                +
000874 81aa     +LDD R26 , Y + 2
000875 81bb     +LDD R27 , Y + 2 + 1
000876 818c     +LDD R24 , Y + 2 + 2
000877 819d     +LDD R25 , Y + 2 + 3
                 	__GETD2S 2
000878 de68      	RCALL _send_cmd_G100
000879 30e0      	CPI  R30,0
00087a f459      	BRNE _0x20000AE
00087b 81ed      	LDD  R30,Y+5
00087c 81fe      	LDD  R31,Y+5+1
00087d 93fa      	ST   -Y,R31
00087e 93ea      	ST   -Y,R30
00087f e0a0      	LDI  R26,LOW(512)
000880 e0b2      	LDI  R27,HIGH(512)
000881 dd96      	RCALL _rx_datablock_G100
000882 30e0      	CPI  R30,0
000883 f011      	BREQ _0x20000AF
000884 e0e0      	LDI  R30,LOW(0)
000885 83e8      	ST   Y,R30
                 _0x20000AF:
                 _0x20000AE:
000886 c023      	RJMP _0x20000B0
                 _0x20000AD:
000887 e5e2      	LDI  R30,LOW(82)
000888 93ea      	ST   -Y,R30
                +
000889 81aa     +LDD R26 , Y + 2
00088a 81bb     +LDD R27 , Y + 2 + 1
00088b 818c     +LDD R24 , Y + 2 + 2
00088c 819d     +LDD R25 , Y + 2 + 3
                 	__GETD2S 2
00088d de53      	RCALL _send_cmd_G100
00088e 30e0      	CPI  R30,0
00088f f4d1      	BRNE _0x20000B1
                 _0x20000B3:
000890 81ed      	LDD  R30,Y+5
000891 81fe      	LDD  R31,Y+5+1
000892 93fa      	ST   -Y,R31
000893 93ea      	ST   -Y,R30
000894 e0a0      	LDI  R26,LOW(512)
000895 e0b2      	LDI  R27,HIGH(512)
000896 dd81      	RCALL _rx_datablock_G100
000897 30e0      	CPI  R30,0
000898 f051      	BREQ _0x20000B4
000899 81ed      	LDD  R30,Y+5
00089a 81fe      	LDD  R31,Y+5+1
00089b 50e0      	SUBI R30,LOW(-512)
00089c 4ffe      	SBCI R31,HIGH(-512)
00089d 83ed      	STD  Y+5,R30
00089e 83fe      	STD  Y+5+1,R31
00089f 81e8      	LD   R30,Y
0008a0 50e1      	SUBI R30,LOW(1)
0008a1 83e8      	ST   Y,R30
0008a2 f769      	BRNE _0x20000B3
                 _0x20000B4:
0008a3 e4ec      	LDI  R30,LOW(76)
0008a4 93ea      	ST   -Y,R30
                +
0008a5 e0a0     +LDI R26 , LOW ( 0x0 )
0008a6 e0b0     +LDI R27 , HIGH ( 0x0 )
0008a7 e080     +LDI R24 , BYTE3 ( 0x0 )
0008a8 e090     +LDI R25 , BYTE4 ( 0x0 )
                 	__GETD2N 0x0
0008a9 de37      	RCALL _send_cmd_G100
                 _0x20000B1:
                 _0x20000B0:
0008aa dd62      	RCALL _deselect_card_G100
0008ab 81e8      	LD   R30,Y
0008ac 30e0      	CPI  R30,0
0008ad f011      	BREQ _0x20000B6
0008ae e0e1      	LDI  R30,LOW(1)
0008af c001      	RJMP _0x20000B7
                 _0x20000B6:
0008b0 e0e0      	LDI  R30,LOW(0)
                 _0x20000B7:
0008b1 c075      	RJMP _0x20C0017
                 ; .FEND
                 _disk_write:
                 ; .FSTART _disk_write
0008b2 93aa      	ST   -Y,R26
0008b3 81ef      	LDD  R30,Y+7
0008b4 30e0      	CPI  R30,0
0008b5 f419      	BRNE _0x20000BA
0008b6 81e8      	LD   R30,Y
0008b7 30e0      	CPI  R30,0
0008b8 f411      	BRNE _0x20000B9
                 _0x20000BA:
0008b9 e0e4      	LDI  R30,LOW(4)
0008ba c06c      	RJMP _0x20C0017
                 _0x20000B9:
0008bb 91e0 2ed0 	LDS  R30,_status_G100
0008bd 70e1      	ANDI R30,LOW(0x1)
0008be f011      	BREQ _0x20000BC
0008bf e0e3      	LDI  R30,LOW(3)
0008c0 c066      	RJMP _0x20C0017
                 _0x20000BC:
0008c1 91e0 2ed0 	LDS  R30,_status_G100
0008c3 70e4      	ANDI R30,LOW(0x4)
0008c4 f011      	BREQ _0x20000BD
0008c5 e0e2      	LDI  R30,LOW(2)
0008c6 c060      	RJMP _0x20C0017
                 _0x20000BD:
0008c7 91e0 2ed3 	LDS  R30,_card_type_G100
0008c9 70e8      	ANDI R30,LOW(0x8)
0008ca f471      	BRNE _0x20000BE
                +
0008cb 81e9     +LDD R30 , Y + 1
0008cc 81fa     +LDD R31 , Y + 1 + 1
0008cd 816b     +LDD R22 , Y + 1 + 2
0008ce 817c     +LDD R23 , Y + 1 + 3
                 	__GETD1S 1
                +
0008cf e0a0     +LDI R26 , LOW ( 0x200 )
0008d0 e0b2     +LDI R27 , HIGH ( 0x200 )
0008d1 e080     +LDI R24 , BYTE3 ( 0x200 )
0008d2 e090     +LDI R25 , BYTE4 ( 0x200 )
                 	__GETD2N 0x200
0008d3 940e 20ab 	CALL __MULD12U
                +
0008d5 83e9     +STD Y + 1 , R30
0008d6 83fa     +STD Y + 1 + 1 , R31
0008d7 836b     +STD Y + 1 + 2 , R22
0008d8 837c     +STD Y + 1 + 3 , R23
                 	__PUTD1S 1
                 _0x20000BE:
0008d9 81a8      	LD   R26,Y
0008da 30a1      	CPI  R26,LOW(0x1)
0008db f4a1      	BRNE _0x20000BF
0008dc e5e8      	LDI  R30,LOW(88)
0008dd 93ea      	ST   -Y,R30
                +
0008de 81aa     +LDD R26 , Y + 2
0008df 81bb     +LDD R27 , Y + 2 + 1
0008e0 818c     +LDD R24 , Y + 2 + 2
0008e1 819d     +LDD R25 , Y + 2 + 3
                 	__GETD2S 2
0008e2 ddfe      	RCALL _send_cmd_G100
0008e3 30e0      	CPI  R30,0
0008e4 f451      	BRNE _0x20000C0
0008e5 81ed      	LDD  R30,Y+5
0008e6 81fe      	LDD  R31,Y+5+1
0008e7 93fa      	ST   -Y,R31
0008e8 93ea      	ST   -Y,R30
0008e9 efae      	LDI  R26,LOW(254)
0008ea dda6      	RCALL _tx_datablock_G100
0008eb 30e0      	CPI  R30,0
0008ec f011      	BREQ _0x20000C1
0008ed e0e0      	LDI  R30,LOW(0)
0008ee 83e8      	ST   Y,R30
                 _0x20000C1:
                 _0x20000C0:
0008ef c030      	RJMP _0x20000C2
                 _0x20000BF:
0008f0 91e0 2ed3 	LDS  R30,_card_type_G100
0008f2 70e6      	ANDI R30,LOW(0x6)
0008f3 f039      	BREQ _0x20000C3
0008f4 ede7      	LDI  R30,LOW(215)
0008f5 93ea      	ST   -Y,R30
0008f6 81a9      	LDD  R26,Y+1
0008f7 27bb      	CLR  R27
0008f8 2788      	CLR  R24
0008f9 2799      	CLR  R25
0008fa dde6      	RCALL _send_cmd_G100
                 _0x20000C3:
0008fb e5e9      	LDI  R30,LOW(89)
0008fc 93ea      	ST   -Y,R30
                +
0008fd 81aa     +LDD R26 , Y + 2
0008fe 81bb     +LDD R27 , Y + 2 + 1
0008ff 818c     +LDD R24 , Y + 2 + 2
000900 819d     +LDD R25 , Y + 2 + 3
                 	__GETD2S 2
000901 dddf      	RCALL _send_cmd_G100
000902 30e0      	CPI  R30,0
000903 f4e1      	BRNE _0x20000C4
                 _0x20000C6:
000904 81ed      	LDD  R30,Y+5
000905 81fe      	LDD  R31,Y+5+1
000906 93fa      	ST   -Y,R31
000907 93ea      	ST   -Y,R30
000908 efac      	LDI  R26,LOW(252)
000909 dd87      	RCALL _tx_datablock_G100
00090a 30e0      	CPI  R30,0
00090b f051      	BREQ _0x20000C7
00090c 81ed      	LDD  R30,Y+5
00090d 81fe      	LDD  R31,Y+5+1
00090e 50e0      	SUBI R30,LOW(-512)
00090f 4ffe      	SBCI R31,HIGH(-512)
000910 83ed      	STD  Y+5,R30
000911 83fe      	STD  Y+5+1,R31
000912 81e8      	LD   R30,Y
000913 50e1      	SUBI R30,LOW(1)
000914 83e8      	ST   Y,R30
000915 f771      	BRNE _0x20000C6
                 _0x20000C7:
000916 e0e0      	LDI  R30,LOW(0)
000917 e0f0      	LDI  R31,HIGH(0)
000918 93fa      	ST   -Y,R31
000919 93ea      	ST   -Y,R30
00091a efad      	LDI  R26,LOW(253)
00091b dd75      	RCALL _tx_datablock_G100
00091c 30e0      	CPI  R30,0
00091d f411      	BRNE _0x20000C9
00091e e0e1      	LDI  R30,LOW(1)
00091f 83e8      	ST   Y,R30
                 _0x20000C9:
                 _0x20000C4:
                 _0x20000C2:
000920 dcec      	RCALL _deselect_card_G100
000921 81e8      	LD   R30,Y
000922 30e0      	CPI  R30,0
000923 f011      	BREQ _0x20000CA
000924 e0e1      	LDI  R30,LOW(1)
000925 c001      	RJMP _0x20000CB
                 _0x20000CA:
000926 e0e0      	LDI  R30,LOW(0)
                 _0x20000CB:
                 _0x20C0017:
000927 9628      	ADIW R28,8
000928 9508      	RET
                 ; .FEND
                 _disk_ioctl:
                 ; .FSTART _disk_ioctl
000929 93ba      	ST   -Y,R27
00092a 93aa      	ST   -Y,R26
00092b 9760      	SBIW R28,16
00092c 940e 2176 	CALL __SAVELOCR4
00092e 89ef      	LDD  R30,Y+23
00092f 30e0      	CPI  R30,0
000930 f011      	BREQ _0x20000CD
000931 e0e4      	LDI  R30,LOW(4)
000932 c18b      	RJMP _0x20C0016
                 _0x20000CD:
000933 91e0 2ed0 	LDS  R30,_status_G100
000935 70e1      	ANDI R30,LOW(0x1)
000936 f011      	BREQ _0x20000CE
000937 e0e3      	LDI  R30,LOW(3)
000938 c185      	RJMP _0x20C0016
                 _0x20000CE:
000939 e011      	LDI  R17,LOW(1)
00093a 89ee      	LDD  R30,Y+22
00093b 30e0      	CPI  R30,0
00093c f441      	BRNE _0x20000D2
00093d e1e0      	LDI  R30,LOW(16)
00093e 93e0 0646 	STS  1606,R30
000940 dcae      	RCALL _wait_ready_G100
000941 3fef      	CPI  R30,LOW(0xFF)
000942 f409      	BRNE _0x20000D3
000943 e010      	LDI  R17,LOW(0)
                 _0x20000D3:
000944 c177      	RJMP _0x20000D1
                 _0x20000D2:
000945 30e1      	CPI  R30,LOW(0x1)
000946 f009      	BREQ PC+2
000947 c05b      	RJMP _0x20000D4
000948 e4e9      	LDI  R30,LOW(73)
000949 93ea      	ST   -Y,R30
                +
00094a e0a0     +LDI R26 , LOW ( 0x0 )
00094b e0b0     +LDI R27 , HIGH ( 0x0 )
00094c e080     +LDI R24 , BYTE3 ( 0x0 )
00094d e090     +LDI R25 , BYTE4 ( 0x0 )
                 	__GETD2N 0x0
00094e dd92      	RCALL _send_cmd_G100
00094f 30e0      	CPI  R30,0
000950 f449      	BRNE _0x20000D6
000951 01fe      	MOVW R30,R28
000952 9634      	ADIW R30,4
000953 93fa      	ST   -Y,R31
000954 93ea      	ST   -Y,R30
000955 e1a0      	LDI  R26,LOW(16)
000956 e0b0      	LDI  R27,0
000957 dcc0      	RCALL _rx_datablock_G100
000958 30e0      	CPI  R30,0
000959 f409      	BRNE _0x20000D7
                 _0x20000D6:
00095a c047      	RJMP _0x20000D5
                 _0x20000D7:
00095b 81ec      	LDD  R30,Y+4
00095c 95e2      	SWAP R30
00095d 70ef      	ANDI R30,0xF
00095e 95e6      	LSR  R30
00095f 95e6      	LSR  R30
000960 30e1      	CPI  R30,LOW(0x1)
000961 f469      	BRNE _0x20000D8
000962 e0e0      	LDI  R30,0
000963 85fc      	LDD  R31,Y+12
000964 85ad      	LDD  R26,Y+13
000965 e0b0      	LDI  R27,0
000966 0fea      	ADD  R30,R26
000967 1ffb      	ADC  R31,R27
000968 9631      	ADIW R30,1
000969 019f      	MOVW R18,R30
00096a 01d9      	MOVW R26,R18
00096b 2788      	CLR  R24
00096c 2799      	CLR  R25
00096d e0ea      	LDI  R30,LOW(10)
00096e c02c      	RJMP _0x2000104
                 _0x20000D8:
00096f 85e9      	LDD  R30,Y+9
000970 70ef      	ANDI R30,LOW(0xF)
000971 2fae      	MOV  R26,R30
000972 85ee      	LDD  R30,Y+14
000973 78e0      	ANDI R30,LOW(0x80)
000974 1fee      	ROL  R30
000975 e0e0      	LDI  R30,0
000976 1fee      	ROL  R30
000977 0fae      	ADD  R26,R30
000978 85ed      	LDD  R30,Y+13
000979 70e3      	ANDI R30,LOW(0x3)
00097a 0fee      	LSL  R30
00097b 0fea      	ADD  R30,R26
00097c 5fee      	SUBI R30,-LOW(2)
00097d 2f0e      	MOV  R16,R30
00097e 85ec      	LDD  R30,Y+12
00097f 95e2      	SWAP R30
000980 70ef      	ANDI R30,0xF
000981 95e6      	LSR  R30
000982 95e6      	LSR  R30
000983 2fae      	MOV  R26,R30
000984 85eb      	LDD  R30,Y+11
000985 e0f0      	LDI  R31,0
000986 940e 207a 	CALL __LSLW2
000988 e0b0      	LDI  R27,0
000989 0fae      	ADD  R26,R30
00098a 1fbf      	ADC  R27,R31
00098b 85ea      	LDD  R30,Y+10
00098c 70e3      	ANDI R30,LOW(0x3)
00098d e0f0      	LDI  R31,0
00098e 940e 207a 	CALL __LSLW2
000990 2ffe      	MOV  R31,R30
000991 e0e0      	LDI  R30,0
000992 0fea      	ADD  R30,R26
000993 1ffb      	ADC  R31,R27
000994 9631      	ADIW R30,1
000995 019f      	MOVW R18,R30
000996 01d9      	MOVW R26,R18
000997 2788      	CLR  R24
000998 2799      	CLR  R25
000999 2fe0      	MOV  R30,R16
00099a 50e9      	SUBI R30,LOW(9)
                 _0x2000104:
00099b 940e 205e 	CALL __LSLD12
00099d 89ac      	LDD  R26,Y+20
00099e 89bd      	LDD  R27,Y+20+1
00099f 940e 212b 	CALL __PUTDP1
0009a1 e010      	LDI  R17,LOW(0)
                 _0x20000D5:
0009a2 c119      	RJMP _0x20000D1
                 _0x20000D4:
0009a3 30e2      	CPI  R30,LOW(0x2)
0009a4 f441      	BRNE _0x20000DA
0009a5 89ac      	LDD  R26,Y+20
0009a6 89bd      	LDD  R27,Y+20+1
0009a7 e0e0      	LDI  R30,LOW(512)
0009a8 e0f2      	LDI  R31,HIGH(512)
0009a9 93ed      	ST   X+,R30
0009aa 93fc      	ST   X,R31
0009ab e010      	LDI  R17,LOW(0)
0009ac c10f      	RJMP _0x20000D1
                 _0x20000DA:
0009ad 30e3      	CPI  R30,LOW(0x3)
0009ae f009      	BREQ PC+2
0009af c0af      	RJMP _0x20000DB
0009b0 91e0 2ed3 	LDS  R30,_card_type_G100
0009b2 70e4      	ANDI R30,LOW(0x4)
0009b3 f1a1      	BREQ _0x20000DC
0009b4 eced      	LDI  R30,LOW(205)
0009b5 93ea      	ST   -Y,R30
                +
0009b6 e0a0     +LDI R26 , LOW ( 0x0 )
0009b7 e0b0     +LDI R27 , HIGH ( 0x0 )
0009b8 e080     +LDI R24 , BYTE3 ( 0x0 )
0009b9 e090     +LDI R25 , BYTE4 ( 0x0 )
                 	__GETD2N 0x0
0009ba dd26      	RCALL _send_cmd_G100
0009bb 30e0      	CPI  R30,0
0009bc f551      	BRNE _0x20000DD
0009bd efef      	LDI  R30,LOW(255)
0009be 93e0 08c3 	STS  2243,R30
                 _0x20000DE:
0009c0 91e0 08c2 	LDS  R30,2242
0009c2 78e0      	ANDI R30,LOW(0x80)
0009c3 f3e1      	BREQ _0x20000DE
0009c4 01fe      	MOVW R30,R28
0009c5 9634      	ADIW R30,4
0009c6 93fa      	ST   -Y,R31
0009c7 93ea      	ST   -Y,R30
0009c8 e1a0      	LDI  R26,LOW(16)
0009c9 e0b0      	LDI  R27,0
0009ca dc4d      	RCALL _rx_datablock_G100
0009cb 30e0      	CPI  R30,0
0009cc f0d1      	BREQ _0x20000E1
0009cd e300      	LDI  R16,LOW(48)
                 _0x20000E3:
0009ce 3000      	CPI  R16,0
0009cf f049      	BREQ _0x20000E4
0009d0 efef      	LDI  R30,LOW(255)
0009d1 93e0 08c3 	STS  2243,R30
                 _0x20000E5:
0009d3 91e0 08c2 	LDS  R30,2242
0009d5 78e0      	ANDI R30,LOW(0x80)
0009d6 f3e1      	BREQ _0x20000E5
0009d7 5001      	SUBI R16,1
0009d8 cff5      	RJMP _0x20000E3
                 _0x20000E4:
0009d9 85ee      	LDD  R30,Y+14
0009da 95e2      	SWAP R30
0009db 70ef      	ANDI R30,0xF
                +
0009dc e1a0     +LDI R26 , LOW ( 0x10 )
0009dd e0b0     +LDI R27 , HIGH ( 0x10 )
0009de e080     +LDI R24 , BYTE3 ( 0x10 )
0009df e090     +LDI R25 , BYTE4 ( 0x10 )
                 	__GETD2N 0x10
0009e0 940e 205e 	CALL __LSLD12
0009e2 89ac      	LDD  R26,Y+20
0009e3 89bd      	LDD  R27,Y+20+1
0009e4 940e 212b 	CALL __PUTDP1
0009e6 e010      	LDI  R17,LOW(0)
                 _0x20000E1:
                 _0x20000DD:
0009e7 c076      	RJMP _0x20000E8
                 _0x20000DC:
0009e8 e4e9      	LDI  R30,LOW(73)
0009e9 93ea      	ST   -Y,R30
                +
0009ea e0a0     +LDI R26 , LOW ( 0x0 )
0009eb e0b0     +LDI R27 , HIGH ( 0x0 )
0009ec e080     +LDI R24 , BYTE3 ( 0x0 )
0009ed e090     +LDI R25 , BYTE4 ( 0x0 )
                 	__GETD2N 0x0
0009ee dcf2      	RCALL _send_cmd_G100
0009ef 30e0      	CPI  R30,0
0009f0 f009      	BREQ PC+2
0009f1 c06c      	RJMP _0x20000E9
0009f2 01fe      	MOVW R30,R28
0009f3 9634      	ADIW R30,4
0009f4 93fa      	ST   -Y,R31
0009f5 93ea      	ST   -Y,R30
0009f6 e1a0      	LDI  R26,LOW(16)
0009f7 e0b0      	LDI  R27,0
0009f8 dc1f      	RCALL _rx_datablock_G100
0009f9 30e0      	CPI  R30,0
0009fa f409      	BRNE PC+2
0009fb c062      	RJMP _0x20000EA
0009fc 91e0 2ed3 	LDS  R30,_card_type_G100
0009fe 70e2      	ANDI R30,LOW(0x2)
0009ff f151      	BREQ _0x20000EB
000a00 85ee      	LDD  R30,Y+14
000a01 73ef      	ANDI R30,LOW(0x3F)
000a02 27ff      	CLR  R31
000a03 2766      	CLR  R22
000a04 2777      	CLR  R23
000a05 940e 2088 	CALL __LSLD1
000a07 937f      	PUSH R23
000a08 936f      	PUSH R22
000a09 93ff      	PUSH R31
000a0a 93ef      	PUSH R30
000a0b 85ef      	LDD  R30,Y+15
000a0c 78e0      	ANDI R30,LOW(0x80)
000a0d 27ff      	CLR  R31
000a0e 2766      	CLR  R22
000a0f 2777      	CLR  R23
000a10 01df      	MOVW R26,R30
000a11 01cb      	MOVW R24,R22
000a12 e0e7      	LDI  R30,LOW(7)
000a13 940e 206a 	CALL __LSRD12
000a15 91af      	POP  R26
000a16 91bf      	POP  R27
000a17 918f      	POP  R24
000a18 919f      	POP  R25
000a19 940e 203c 	CALL __ADDD12
                +
000a1b 5fef     +SUBI R30 , LOW ( - 1 )
000a1c 4fff     +SBCI R31 , HIGH ( - 1 )
000a1d 4f6f     +SBCI R22 , BYTE3 ( - 1 )
000a1e 4f7f     +SBCI R23 , BYTE4 ( - 1 )
                 	__ADDD1N 1
000a1f 01df      	MOVW R26,R30
000a20 01cb      	MOVW R24,R22
000a21 89e9      	LDD  R30,Y+17
000a22 95e2      	SWAP R30
000a23 70ef      	ANDI R30,0xF
000a24 95e6      	LSR  R30
000a25 95e6      	LSR  R30
000a26 50e1      	SUBI R30,LOW(1)
000a27 940e 205e 	CALL __LSLD12
000a29 c02f      	RJMP _0x2000105
                 _0x20000EB:
000a2a 85ee      	LDD  R30,Y+14
000a2b 77ec      	ANDI R30,LOW(0x7C)
000a2c 95e6      	LSR  R30
000a2d 95e6      	LSR  R30
000a2e 27ff      	CLR  R31
000a2f 2766      	CLR  R22
000a30 2777      	CLR  R23
                +
000a31 5fef     +SUBI R30 , LOW ( - 1 )
000a32 4fff     +SBCI R31 , HIGH ( - 1 )
000a33 4f6f     +SBCI R22 , BYTE3 ( - 1 )
000a34 4f7f     +SBCI R23 , BYTE4 ( - 1 )
                 	__ADDD1N 1
000a35 937f      	PUSH R23
000a36 936f      	PUSH R22
000a37 93ff      	PUSH R31
000a38 93ef      	PUSH R30
000a39 85ef      	LDD  R30,Y+15
000a3a 70e3      	ANDI R30,LOW(0x3)
000a3b 27ff      	CLR  R31
000a3c 2766      	CLR  R22
000a3d 2777      	CLR  R23
000a3e 01df      	MOVW R26,R30
000a3f 01cb      	MOVW R24,R22
000a40 e0e3      	LDI  R30,LOW(3)
000a41 940e 205e 	CALL __LSLD12
000a43 01df      	MOVW R26,R30
000a44 01cb      	MOVW R24,R22
000a45 85ef      	LDD  R30,Y+15
000a46 7ee0      	ANDI R30,LOW(0xE0)
000a47 95e2      	SWAP R30
000a48 70ef      	ANDI R30,0xF
000a49 95e6      	LSR  R30
000a4a 27ff      	CLR  R31
000a4b 2766      	CLR  R22
000a4c 2777      	CLR  R23
000a4d 940e 203c 	CALL __ADDD12
                +
000a4f 5fef     +SUBI R30 , LOW ( - 1 )
000a50 4fff     +SBCI R31 , HIGH ( - 1 )
000a51 4f6f     +SBCI R22 , BYTE3 ( - 1 )
000a52 4f7f     +SBCI R23 , BYTE4 ( - 1 )
                 	__ADDD1N 1
000a53 91af      	POP  R26
000a54 91bf      	POP  R27
000a55 918f      	POP  R24
000a56 919f      	POP  R25
000a57 940e 20ab 	CALL __MULD12U
                 _0x2000105:
000a59 89ac      	LDD  R26,Y+20
000a5a 89bd      	LDD  R27,Y+20+1
000a5b 940e 212b 	CALL __PUTDP1
000a5d e010      	LDI  R17,LOW(0)
                 _0x20000EA:
                 _0x20000E9:
                 _0x20000E8:
000a5e c05d      	RJMP _0x20000D1
                 _0x20000DB:
000a5f 30ea      	CPI  R30,LOW(0xA)
000a60 f439      	BRNE _0x20000ED
000a61 91e0 2ed3 	LDS  R30,_card_type_G100
000a63 89ac      	LDD  R26,Y+20
000a64 89bd      	LDD  R27,Y+20+1
000a65 93ec      	ST   X,R30
000a66 e010      	LDI  R17,LOW(0)
000a67 c054      	RJMP _0x20000D1
                 _0x20000ED:
000a68 30eb      	CPI  R30,LOW(0xB)
000a69 f411      	BRNE _0x20000EE
000a6a e409      	LDI  R16,LOW(73)
000a6b c003      	RJMP _0x20000EF
                 _0x20000EE:
000a6c 30ec      	CPI  R30,LOW(0xC)
000a6d f501      	BRNE _0x20000F1
000a6e e40a      	LDI  R16,LOW(74)
                 _0x20000EF:
000a6f 930a      	ST   -Y,R16
                +
000a70 e0a0     +LDI R26 , LOW ( 0x0 )
000a71 e0b0     +LDI R27 , HIGH ( 0x0 )
000a72 e080     +LDI R24 , BYTE3 ( 0x0 )
000a73 e090     +LDI R25 , BYTE4 ( 0x0 )
                 	__GETD2N 0x0
000a74 dc6c      	RCALL _send_cmd_G100
000a75 30e0      	CPI  R30,0
000a76 f4b1      	BRNE _0x20000F2
000a77 89ec      	LDD  R30,Y+20
000a78 89fd      	LDD  R31,Y+20+1
000a79 93fa      	ST   -Y,R31
000a7a 93ea      	ST   -Y,R30
000a7b e1a0      	LDI  R26,LOW(16)
000a7c e0b0      	LDI  R27,0
000a7d db9a      	RCALL _rx_datablock_G100
000a7e 30e0      	CPI  R30,0
000a7f f069      	BREQ _0x20000F3
000a80 89ec      	LDD  R30,Y+20
000a81 89fd      	LDD  R31,Y+20+1
000a82 93fa      	ST   -Y,R31
000a83 93ea      	ST   -Y,R30
000a84 e0af      	LDI  R26,LOW(15)
000a85 db4c      	RCALL _crc7_G100
000a86 2fae      	MOV  R26,R30
000a87 89ec      	LDD  R30,Y+20
000a88 89fd      	LDD  R31,Y+20+1
000a89 85e7      	LDD  R30,Z+15
000a8a 17ea      	CP   R30,R26
000a8b f409      	BRNE _0x20000F4
000a8c e010      	LDI  R17,LOW(0)
                 _0x20000F4:
                 _0x20000F3:
                 _0x20000F2:
000a8d c02e      	RJMP _0x20000D1
                 _0x20000F1:
000a8e 30ed      	CPI  R30,LOW(0xD)
000a8f f471      	BRNE _0x20000F5
000a90 e7ea      	LDI  R30,LOW(122)
000a91 93ea      	ST   -Y,R30
                +
000a92 e0a0     +LDI R26 , LOW ( 0x0 )
000a93 e0b0     +LDI R27 , HIGH ( 0x0 )
000a94 e080     +LDI R24 , BYTE3 ( 0x0 )
000a95 e090     +LDI R25 , BYTE4 ( 0x0 )
                 	__GETD2N 0x0
000a96 dc4a      	RCALL _send_cmd_G100
000a97 30e0      	CPI  R30,0
000a98 f421      	BRNE _0x20000F6
000a99 89ac      	LDD  R26,Y+20
000a9a 89bd      	LDD  R27,Y+20+1
000a9b dcbb      	RCALL _rx_spi4_G100
000a9c e010      	LDI  R17,LOW(0)
                 _0x20000F6:
000a9d c01e      	RJMP _0x20000D1
                 _0x20000F5:
000a9e 30ee      	CPI  R30,LOW(0xE)
000a9f f4d9      	BRNE _0x20000FD
000aa0 eced      	LDI  R30,LOW(205)
000aa1 93ea      	ST   -Y,R30
                +
000aa2 e0a0     +LDI R26 , LOW ( 0x0 )
000aa3 e0b0     +LDI R27 , HIGH ( 0x0 )
000aa4 e080     +LDI R24 , BYTE3 ( 0x0 )
000aa5 e090     +LDI R25 , BYTE4 ( 0x0 )
                 	__GETD2N 0x0
000aa6 dc3a      	RCALL _send_cmd_G100
000aa7 30e0      	CPI  R30,0
000aa8 f489      	BRNE _0x20000F8
000aa9 efef      	LDI  R30,LOW(255)
000aaa 93e0 08c3 	STS  2243,R30
                 _0x20000F9:
000aac 91e0 08c2 	LDS  R30,2242
000aae 78e0      	ANDI R30,LOW(0x80)
000aaf f3e1      	BREQ _0x20000F9
000ab0 89ec      	LDD  R30,Y+20
000ab1 89fd      	LDD  R31,Y+20+1
000ab2 93fa      	ST   -Y,R31
000ab3 93ea      	ST   -Y,R30
000ab4 e4a0      	LDI  R26,LOW(64)
000ab5 e0b0      	LDI  R27,0
000ab6 db61      	RCALL _rx_datablock_G100
000ab7 30e0      	CPI  R30,0
000ab8 f009      	BREQ _0x20000FC
000ab9 e010      	LDI  R17,LOW(0)
                 _0x20000FC:
                 _0x20000F8:
000aba c001      	RJMP _0x20000D1
                 _0x20000FD:
000abb e014      	LDI  R17,LOW(4)
                 _0x20000D1:
000abc db50      	RCALL _deselect_card_G100
000abd 2fe1      	MOV  R30,R17
                 _0x20C0016:
000abe 940e 217d 	CALL __LOADLOCR4
000ac0 9668      	ADIW R28,24
000ac1 9508      	RET
                 ; .FEND
                 _disk_timerproc:
                 ; .FSTART _disk_timerproc
000ac2 931a      	ST   -Y,R17
000ac3 9110 2ed1 	LDS  R17,_timer1_G100
000ac5 3010      	CPI  R17,0
000ac6 f019      	BREQ _0x20000FE
000ac7 5011      	SUBI R17,LOW(1)
000ac8 9310 2ed1 	STS  _timer1_G100,R17
                 _0x20000FE:
000aca 9110 2ed2 	LDS  R17,_timer2_G100
000acc 3010      	CPI  R17,0
000acd f019      	BREQ _0x20000FF
000ace 5011      	SUBI R17,LOW(1)
000acf 9310 2ed2 	STS  _timer2_G100,R17
                 _0x20000FF:
000ad1 91e0 2ed0 	LDS  R30,_status_G100
000ad3 7feb      	ANDI R30,0xFB
000ad4 93e0 2ed0 	STS  _status_G100,R30
                 _0x20C0015:
000ad6 9119      	LD   R17,Y+
000ad7 9508      	RET
                 ; .FEND
                 
                 	.CSEG
                 _get_fattime:
                 ; .FSTART _get_fattime
000ad8 9727      	SBIW R28,7
000ad9 91a0 2400 	LDS  R26,_prtc_get_time
000adb 91b0 2401 	LDS  R27,_prtc_get_time+1
000add 9710      	SBIW R26,0
000ade f031      	BREQ _0x2020004
000adf 91a0 2402 	LDS  R26,_prtc_get_date
000ae1 91b0 2403 	LDS  R27,_prtc_get_date+1
000ae3 9710      	SBIW R26,0
000ae4 f429      	BRNE _0x2020003
                 _0x2020004:
                +
000ae5 e0e0     +LDI R30 , LOW ( 0x3A210000 )
000ae6 e0f0     +LDI R31 , HIGH ( 0x3A210000 )
000ae7 e261     +LDI R22 , BYTE3 ( 0x3A210000 )
000ae8 e37a     +LDI R23 , BYTE4 ( 0x3A210000 )
                 	__GETD1N 0x3A210000
000ae9 c076      	RJMP _0x20C0014
                 _0x2020003:
000aea 01fe      	MOVW R30,R28
000aeb 9636      	ADIW R30,6
000aec 93fa      	ST   -Y,R31
000aed 93ea      	ST   -Y,R30
000aee 01fe      	MOVW R30,R28
000aef 9637      	ADIW R30,7
000af0 93fa      	ST   -Y,R31
000af1 93ea      	ST   -Y,R30
000af2 01de      	MOVW R26,R28
000af3 9618      	ADIW R26,8
                +
000af4 91e0 2400+LDS R30 , _prtc_get_time + ( 0 )
000af6 91f0 2401+LDS R31 , _prtc_get_time + ( 0 ) + 1
000af8 9509     +ICALL
                 	__CALL1MN _prtc_get_time,0
000af9 01fe      	MOVW R30,R28
000afa 9633      	ADIW R30,3
000afb 93fa      	ST   -Y,R31
000afc 93ea      	ST   -Y,R30
000afd 01fe      	MOVW R30,R28
000afe 9634      	ADIW R30,4
000aff 93fa      	ST   -Y,R31
000b00 93ea      	ST   -Y,R30
000b01 01de      	MOVW R26,R28
000b02 9614      	ADIW R26,4
                +
000b03 91e0 2402+LDS R30 , _prtc_get_date + ( 0 )
000b05 91f0 2403+LDS R31 , _prtc_get_date + ( 0 ) + 1
000b07 9509     +ICALL
                 	__CALL1MN _prtc_get_date,0
000b08 81e8      	LD   R30,Y
000b09 81f9      	LDD  R31,Y+1
000b0a 5bec      	SUBI R30,LOW(1980)
000b0b 40f7      	SBCI R31,HIGH(1980)
000b0c 2766      	CLR  R22
000b0d 2777      	CLR  R23
000b0e 01df      	MOVW R26,R30
000b0f 01cb      	MOVW R24,R22
000b10 e1e9      	LDI  R30,LOW(25)
000b11 940e 205e 	CALL __LSLD12
000b13 937f      	PUSH R23
000b14 936f      	PUSH R22
000b15 93ff      	PUSH R31
000b16 93ef      	PUSH R30
000b17 81ea      	LDD  R30,Y+2
000b18 e0f0      	LDI  R31,0
000b19 940e 2097 	CALL __CWD1
000b1b 01df      	MOVW R26,R30
000b1c 01cb      	MOVW R24,R22
000b1d e1e5      	LDI  R30,LOW(21)
000b1e 940e 205e 	CALL __LSLD12
000b20 91af      	POP  R26
000b21 91bf      	POP  R27
000b22 918f      	POP  R24
000b23 919f      	POP  R25
000b24 940e 2055 	CALL __ORD12
000b26 01df      	MOVW R26,R30
000b27 01cb      	MOVW R24,R22
000b28 81eb      	LDD  R30,Y+3
000b29 e0f0      	LDI  R31,0
000b2a 940e 2097 	CALL __CWD1
000b2c 940e 2092 	CALL __LSLD16
000b2e 940e 2055 	CALL __ORD12
000b30 937f      	PUSH R23
000b31 936f      	PUSH R22
000b32 93ff      	PUSH R31
000b33 93ef      	PUSH R30
000b34 81ee      	LDD  R30,Y+6
000b35 e0f0      	LDI  R31,0
000b36 940e 2097 	CALL __CWD1
000b38 01df      	MOVW R26,R30
000b39 01cb      	MOVW R24,R22
000b3a e0eb      	LDI  R30,LOW(11)
000b3b 940e 205e 	CALL __LSLD12
000b3d 91af      	POP  R26
000b3e 91bf      	POP  R27
000b3f 918f      	POP  R24
000b40 919f      	POP  R25
000b41 940e 2055 	CALL __ORD12
000b43 937f      	PUSH R23
000b44 936f      	PUSH R22
000b45 93ff      	PUSH R31
000b46 93ef      	PUSH R30
000b47 81ed      	LDD  R30,Y+5
000b48 e0f0      	LDI  R31,0
000b49 940e 2097 	CALL __CWD1
000b4b 01df      	MOVW R26,R30
000b4c 01cb      	MOVW R24,R22
000b4d e0e5      	LDI  R30,LOW(5)
000b4e 940e 205e 	CALL __LSLD12
000b50 91af      	POP  R26
000b51 91bf      	POP  R27
000b52 918f      	POP  R24
000b53 919f      	POP  R25
000b54 940e 2055 	CALL __ORD12
000b56 01df      	MOVW R26,R30
000b57 01cb      	MOVW R24,R22
000b58 81ec      	LDD  R30,Y+4
000b59 e0f0      	LDI  R31,0
000b5a 95f5      	ASR  R31
000b5b 95e7      	ROR  R30
000b5c 940e 2097 	CALL __CWD1
000b5e 940e 2055 	CALL __ORD12
                 _0x20C0014:
000b60 9627      	ADIW R28,7
000b61 9508      	RET
                 ; .FEND
                 _chk_chrf_G101:
                 ; .FSTART _chk_chrf_G101
000b62 93aa      	ST   -Y,R26
000b63 931a      	ST   -Y,R17
                 _0x2020006:
000b64 81ea      	LDD  R30,Y+2
000b65 81fb      	LDD  R31,Y+2+1
000b66 91e4      	LPM  R30,Z
000b67 2f1e      	MOV  R17,R30
000b68 30e0      	CPI  R30,0
000b69 f019      	BREQ _0x2020009
000b6a 81e9      	LDD  R30,Y+1
000b6b 17e1      	CP   R30,R17
000b6c f409      	BRNE _0x202000A
                 _0x2020009:
000b6d c006      	RJMP _0x2020008
                 _0x202000A:
000b6e 81ea      	LDD  R30,Y+2
000b6f 81fb      	LDD  R31,Y+2+1
000b70 9631      	ADIW R30,1
000b71 83ea      	STD  Y+2,R30
000b72 83fb      	STD  Y+2+1,R31
000b73 cff0      	RJMP _0x2020006
                 _0x2020008:
000b74 2fe1      	MOV  R30,R17
000b75 e0f0      	LDI  R31,0
000b76 8118      	LDD  R17,Y+0
000b77 9624      	ADIW R28,4
000b78 9508      	RET
                 ; .FEND
                 _move_window_G101:
                 ; .FSTART _move_window_G101
000b79 940e 214e 	CALL __PUTPARD2
000b7b 9724      	SBIW R28,4
000b7c 931a      	ST   -Y,R17
000b7d 85a9      	LDD  R26,Y+9
000b7e 85ba      	LDD  R27,Y+9+1
000b7f 969e      	ADIW R26,46
000b80 940e 2120 	CALL __GETD1P
                +
000b82 83e9     +STD Y + 1 , R30
000b83 83fa     +STD Y + 1 + 1 , R31
000b84 836b     +STD Y + 1 + 2 , R22
000b85 837c     +STD Y + 1 + 3 , R23
                 	__PUTD1S 1
                +
000b86 81ed     +LDD R30 , Y + 5
000b87 81fe     +LDD R31 , Y + 5 + 1
000b88 816f     +LDD R22 , Y + 5 + 2
000b89 8578     +LDD R23 , Y + 5 + 3
                 	__GETD1S 5
                +
000b8a 81a9     +LDD R26 , Y + 1
000b8b 81ba     +LDD R27 , Y + 1 + 1
000b8c 818b     +LDD R24 , Y + 1 + 2
000b8d 819c     +LDD R25 , Y + 1 + 3
                 	__GETD2S 1
000b8e 940e 216a 	CALL __CPD12
000b90 f409      	BRNE PC+2
000b91 c083      	RJMP _0x202000B
000b92 85e9      	LDD  R30,Y+9
000b93 85fa      	LDD  R31,Y+9+1
000b94 81e4      	LDD  R30,Z+4
000b95 30e0      	CPI  R30,0
000b96 f409      	BRNE PC+2
000b97 c056      	RJMP _0x202000C
000b98 85e9      	LDD  R30,Y+9
000b99 85fa      	LDD  R31,Y+9+1
000b9a 81a1      	LDD  R26,Z+1
000b9b 93aa      	ST   -Y,R26
000b9c 85ea      	LDD  R30,Y+10
000b9d 85fb      	LDD  R31,Y+10+1
000b9e 96f2      	ADIW R30,50
000b9f 93fa      	ST   -Y,R31
000ba0 93ea      	ST   -Y,R30
                +
000ba1 81ec     +LDD R30 , Y + 4
000ba2 81fd     +LDD R31 , Y + 4 + 1
000ba3 816e     +LDD R22 , Y + 4 + 2
000ba4 817f     +LDD R23 , Y + 4 + 3
                 	__GETD1S 4
000ba5 940e 2149 	CALL __PUTPARD1
000ba7 e0a1      	LDI  R26,LOW(1)
000ba8 dd09      	RCALL _disk_write
000ba9 30e0      	CPI  R30,0
000baa f009      	BREQ _0x202000D
000bab c05c      	RJMP _0x20C0013
                 _0x202000D:
000bac 85a9      	LDD  R26,Y+9
000bad 85ba      	LDD  R27,Y+9+1
000bae 9614      	ADIW R26,4
000baf e0e0      	LDI  R30,LOW(0)
000bb0 93ec      	ST   X,R30
000bb1 85e9      	LDD  R30,Y+9
000bb2 85fa      	LDD  R31,Y+9+1
                +
000bb3 a1a2     +LDD R26 , Z + 34
000bb4 a1b3     +LDD R27 , Z + 34 + 1
000bb5 a184     +LDD R24 , Z + 34 + 2
000bb6 a195     +LDD R25 , Z + 34 + 3
                 	__GETD2Z 34
000bb7 010d      	MOVW R0,R26
000bb8 85a9      	LDD  R26,Y+9
000bb9 85ba      	LDD  R27,Y+9+1
000bba 965a      	ADIW R26,26
000bbb 940e 2120 	CALL __GETD1P
000bbd 01d0      	MOVW R26,R0
000bbe 940e 203c 	CALL __ADDD12
                +
000bc0 81a9     +LDD R26 , Y + 1
000bc1 81ba     +LDD R27 , Y + 1 + 1
000bc2 818b     +LDD R24 , Y + 1 + 2
000bc3 819c     +LDD R25 , Y + 1 + 3
                 	__GETD2S 1
000bc4 940e 216f 	CALL __CPD21
000bc6 f538      	BRSH _0x202000E
000bc7 85e9      	LDD  R30,Y+9
000bc8 85fa      	LDD  R31,Y+9+1
000bc9 8113      	LDD  R17,Z+3
                 _0x2020010:
000bca 3012      	CPI  R17,2
000bcb f110      	BRLO _0x2020011
000bcc 85a9      	LDD  R26,Y+9
000bcd 85ba      	LDD  R27,Y+9+1
000bce 965a      	ADIW R26,26
000bcf 940e 2120 	CALL __GETD1P
                +
000bd1 81a9     +LDD R26 , Y + 1
000bd2 81ba     +LDD R27 , Y + 1 + 1
000bd3 818b     +LDD R24 , Y + 1 + 2
000bd4 819c     +LDD R25 , Y + 1 + 3
                 	__GETD2S 1
000bd5 940e 203c 	CALL __ADDD12
                +
000bd7 83e9     +STD Y + 1 , R30
000bd8 83fa     +STD Y + 1 + 1 , R31
000bd9 836b     +STD Y + 1 + 2 , R22
000bda 837c     +STD Y + 1 + 3 , R23
                 	__PUTD1S 1
000bdb 85e9      	LDD  R30,Y+9
000bdc 85fa      	LDD  R31,Y+9+1
000bdd 81a1      	LDD  R26,Z+1
000bde 93aa      	ST   -Y,R26
000bdf 85ea      	LDD  R30,Y+10
000be0 85fb      	LDD  R31,Y+10+1
000be1 96f2      	ADIW R30,50
000be2 93fa      	ST   -Y,R31
000be3 93ea      	ST   -Y,R30
                +
000be4 81ec     +LDD R30 , Y + 4
000be5 81fd     +LDD R31 , Y + 4 + 1
000be6 816e     +LDD R22 , Y + 4 + 2
000be7 817f     +LDD R23 , Y + 4 + 3
                 	__GETD1S 4
000be8 940e 2149 	CALL __PUTPARD1
000bea e0a1      	LDI  R26,LOW(1)
000beb dcc6      	RCALL _disk_write
000bec 5011      	SUBI R17,1
000bed cfdc      	RJMP _0x2020010
                 _0x2020011:
                 _0x202000E:
                 _0x202000C:
                +
000bee 81ed     +LDD R30 , Y + 5
000bef 81fe     +LDD R31 , Y + 5 + 1
000bf0 816f     +LDD R22 , Y + 5 + 2
000bf1 8578     +LDD R23 , Y + 5 + 3
                 	__GETD1S 5
000bf2 940e 2160 	CALL __CPD10
000bf4 f101      	BREQ _0x2020012
000bf5 85e9      	LDD  R30,Y+9
000bf6 85fa      	LDD  R31,Y+9+1
000bf7 81a1      	LDD  R26,Z+1
000bf8 93aa      	ST   -Y,R26
000bf9 85ea      	LDD  R30,Y+10
000bfa 85fb      	LDD  R31,Y+10+1
000bfb 96f2      	ADIW R30,50
000bfc 93fa      	ST   -Y,R31
000bfd 93ea      	ST   -Y,R30
                +
000bfe 85e8     +LDD R30 , Y + 8
000bff 85f9     +LDD R31 , Y + 8 + 1
000c00 856a     +LDD R22 , Y + 8 + 2
000c01 857b     +LDD R23 , Y + 8 + 3
                 	__GETD1S 8
000c02 940e 2149 	CALL __PUTPARD1
000c04 e0a1      	LDI  R26,LOW(1)
000c05 dc48      	RCALL _disk_read
000c06 30e0      	CPI  R30,0
000c07 f021      	BREQ _0x2020013
                 _0x20C0013:
000c08 e0e1      	LDI  R30,LOW(1)
000c09 8118      	LDD  R17,Y+0
000c0a 962b      	ADIW R28,11
000c0b 9508      	RET
                 _0x2020013:
                +
000c0c 81ed     +LDD R30 , Y + 5
000c0d 81fe     +LDD R31 , Y + 5 + 1
000c0e 816f     +LDD R22 , Y + 5 + 2
000c0f 8578     +LDD R23 , Y + 5 + 3
                 	__GETD1S 5
                +
000c10 85a9     +LDD R26 , Y + 9
000c11 85ba     +LDD R27 , Y + 9 + 1
000c12 969e     +ADIW R26 , 46
000c13 940e 212b+CALL __PUTDP1
                 	__PUTD1SNS 9,46
                 _0x2020012:
                 _0x202000B:
000c15 e0e0      	LDI  R30,LOW(0)
000c16 8118      	LDD  R17,Y+0
000c17 c6f0      	RJMP _0x20C000E
                 ; .FEND
                 _sync_G101:
                 ; .FSTART _sync_G101
000c18 93ba      	ST   -Y,R27
000c19 93aa      	ST   -Y,R26
000c1a 931a      	ST   -Y,R17
000c1b 81e9      	LDD  R30,Y+1
000c1c 81fa      	LDD  R31,Y+1+1
000c1d 93fa      	ST   -Y,R31
000c1e 93ea      	ST   -Y,R30
                +
000c1f e0a0     +LDI R26 , LOW ( 0x0 )
000c20 e0b0     +LDI R27 , HIGH ( 0x0 )
000c21 e080     +LDI R24 , BYTE3 ( 0x0 )
000c22 e090     +LDI R25 , BYTE4 ( 0x0 )
                 	__GETD2N 0x0
000c23 df55      	RCALL _move_window_G101
000c24 2f1e      	MOV  R17,R30
000c25 3010      	CPI  R17,0
000c26 f009      	BREQ PC+2
000c27 c07c      	RJMP _0x2020014
000c28 81a9      	LDD  R26,Y+1
000c29 81ba      	LDD  R27,Y+1+1
000c2a 91ac      	LD   R26,X
000c2b 30a3      	CPI  R26,LOW(0x3)
000c2c f429      	BRNE _0x2020016
000c2d 81e9      	LDD  R30,Y+1
000c2e 81fa      	LDD  R31,Y+1+1
000c2f 81e5      	LDD  R30,Z+5
000c30 30e0      	CPI  R30,0
000c31 f409      	BRNE _0x2020017
                 _0x2020016:
000c32 c065      	RJMP _0x2020015
                 _0x2020017:
000c33 81a9      	LDD  R26,Y+1
000c34 81ba      	LDD  R27,Y+1+1
000c35 969e      	ADIW R26,46
                +
000c36 e0e0     +LDI R30 , LOW ( 0x0 )
000c37 e0f0     +LDI R31 , HIGH ( 0x0 )
000c38 e060     +LDI R22 , BYTE3 ( 0x0 )
000c39 e070     +LDI R23 , BYTE4 ( 0x0 )
                 	__GETD1N 0x0
000c3a 940e 212b 	CALL __PUTDP1
000c3c 81e9      	LDD  R30,Y+1
000c3d 81fa      	LDD  R31,Y+1+1
000c3e 96f2      	ADIW R30,50
000c3f 93fa      	ST   -Y,R31
000c40 93ea      	ST   -Y,R30
000c41 e0e0      	LDI  R30,LOW(0)
000c42 93ea      	ST   -Y,R30
000c43 e0a0      	LDI  R26,LOW(512)
000c44 e0b2      	LDI  R27,HIGH(512)
000c45 940e 2022 	CALL _memset
000c47 81e9      	LDD  R30,Y+1
000c48 81fa      	LDD  R31,Y+1+1
000c49 96f2      	ADIW R30,50
000c4a 50e2      	SUBI R30,LOW(-510)
000c4b 4ffe      	SBCI R31,HIGH(-510)
000c4c e5a5      	LDI  R26,LOW(43605)
000c4d eaba      	LDI  R27,HIGH(43605)
000c4e 83a0      	STD  Z+0,R26
000c4f 83b1      	STD  Z+1,R27
000c50 81e9      	LDD  R30,Y+1
000c51 81fa      	LDD  R31,Y+1+1
000c52 96f2      	ADIW R30,50
                +
000c53 e5a2     +LDI R26 , LOW ( 0x41615252 )
000c54 e5b2     +LDI R27 , HIGH ( 0x41615252 )
000c55 e681     +LDI R24 , BYTE3 ( 0x41615252 )
000c56 e491     +LDI R25 , BYTE4 ( 0x41615252 )
                 	__GETD2N 0x41615252
000c57 940e 2144 	CALL __PUTDZ20
000c59 81e9      	LDD  R30,Y+1
000c5a 81fa      	LDD  R31,Y+1+1
000c5b 96f2      	ADIW R30,50
000c5c 51ec      	SUBI R30,LOW(-484)
000c5d 4ffe      	SBCI R31,HIGH(-484)
                +
000c5e e7a2     +LDI R26 , LOW ( 0x61417272 )
000c5f e7b2     +LDI R27 , HIGH ( 0x61417272 )
000c60 e481     +LDI R24 , BYTE3 ( 0x61417272 )
000c61 e691     +LDI R25 , BYTE4 ( 0x61417272 )
                 	__GETD2N 0x61417272
000c62 940e 2144 	CALL __PUTDZ20
000c64 81e9      	LDD  R30,Y+1
000c65 81fa      	LDD  R31,Y+1+1
000c66 96f2      	ADIW R30,50
000c67 51e8      	SUBI R30,LOW(-488)
000c68 4ffe      	SBCI R31,HIGH(-488)
000c69 010f      	MOVW R0,R30
000c6a 81a9      	LDD  R26,Y+1
000c6b 81ba      	LDD  R27,Y+1+1
000c6c 961e      	ADIW R26,14
000c6d 940e 2120 	CALL __GETD1P
000c6f 01d0      	MOVW R26,R0
000c70 940e 212b 	CALL __PUTDP1
000c72 81e9      	LDD  R30,Y+1
000c73 81fa      	LDD  R31,Y+1+1
000c74 96f2      	ADIW R30,50
000c75 51e4      	SUBI R30,LOW(-492)
000c76 4ffe      	SBCI R31,HIGH(-492)
000c77 010f      	MOVW R0,R30
000c78 81a9      	LDD  R26,Y+1
000c79 81ba      	LDD  R27,Y+1+1
000c7a 961a      	ADIW R26,10
000c7b 940e 2120 	CALL __GETD1P
000c7d 01d0      	MOVW R26,R0
000c7e 940e 212b 	CALL __PUTDP1
000c80 81e9      	LDD  R30,Y+1
000c81 81fa      	LDD  R31,Y+1+1
000c82 81a1      	LDD  R26,Z+1
000c83 93aa      	ST   -Y,R26
000c84 81ea      	LDD  R30,Y+2
000c85 81fb      	LDD  R31,Y+2+1
000c86 96f2      	ADIW R30,50
000c87 93fa      	ST   -Y,R31
000c88 93ea      	ST   -Y,R30
000c89 81ec      	LDD  R30,Y+4
000c8a 81fd      	LDD  R31,Y+4+1
                +
000c8b 89a2     +LDD R26 , Z + 18
000c8c 89b3     +LDD R27 , Z + 18 + 1
000c8d 8984     +LDD R24 , Z + 18 + 2
000c8e 8995     +LDD R25 , Z + 18 + 3
                 	__GETD2Z 18
000c8f 940e 214e 	CALL __PUTPARD2
000c91 e0a1      	LDI  R26,LOW(1)
000c92 dc1f      	RCALL _disk_write
000c93 81a9      	LDD  R26,Y+1
000c94 81ba      	LDD  R27,Y+1+1
000c95 9615      	ADIW R26,5
000c96 e0e0      	LDI  R30,LOW(0)
000c97 93ec      	ST   X,R30
                 _0x2020015:
000c98 81e9      	LDD  R30,Y+1
000c99 81fa      	LDD  R31,Y+1+1
000c9a 81a1      	LDD  R26,Z+1
000c9b 93aa      	ST   -Y,R26
000c9c e0e0      	LDI  R30,LOW(0)
000c9d 93ea      	ST   -Y,R30
000c9e e0a0      	LDI  R26,LOW(0)
000c9f e0b0      	LDI  R27,HIGH(0)
000ca0 dc88      	RCALL _disk_ioctl
000ca1 30e0      	CPI  R30,0
000ca2 f009      	BREQ _0x2020018
000ca3 e011      	LDI  R17,LOW(1)
                 _0x2020018:
                 _0x2020014:
000ca4 2fe1      	MOV  R30,R17
                 _0x20C0012:
000ca5 8118      	LDD  R17,Y+0
000ca6 9623      	ADIW R28,3
000ca7 9508      	RET
                 ; .FEND
                 _get_fat:
                 ; .FSTART _get_fat
000ca8 940e 214e 	CALL __PUTPARD2
000caa 9724      	SBIW R28,4
000cab 940e 2176 	CALL __SAVELOCR4
                +
000cad 85a8     +LDD R26 , Y + 8
000cae 85b9     +LDD R27 , Y + 8 + 1
000caf 858a     +LDD R24 , Y + 8 + 2
000cb0 859b     +LDD R25 , Y + 8 + 3
                 	__GETD2S 8
                +
000cb1 30a2     +CPI R26 , LOW ( 0x2 )
000cb2 e0e0     +LDI R30 , HIGH ( 0x2 )
000cb3 07be     +CPC R27 , R30
000cb4 e0e0     +LDI R30 , BYTE3 ( 0x2 )
000cb5 078e     +CPC R24 , R30
000cb6 e0e0     +LDI R30 , BYTE4 ( 0x2 )
000cb7 079e     +CPC R25 , R30
                 	__CPD2N 0x2
000cb8 f060      	BRLO _0x202001A
000cb9 85ac      	LDD  R26,Y+12
000cba 85bd      	LDD  R27,Y+12+1
000cbb 965e      	ADIW R26,30
000cbc 940e 2120 	CALL __GETD1P
                +
000cbe 85a8     +LDD R26 , Y + 8
000cbf 85b9     +LDD R27 , Y + 8 + 1
000cc0 858a     +LDD R24 , Y + 8 + 2
000cc1 859b     +LDD R25 , Y + 8 + 3
                 	__GETD2S 8
000cc2 940e 216f 	CALL __CPD21
000cc4 f028      	BRLO _0x2020019
                 _0x202001A:
                +
000cc5 e0e1     +LDI R30 , LOW ( 0x1 )
000cc6 e0f0     +LDI R31 , HIGH ( 0x1 )
000cc7 e060     +LDI R22 , BYTE3 ( 0x1 )
000cc8 e070     +LDI R23 , BYTE4 ( 0x1 )
                 	__GETD1N 0x1
000cc9 c0c2      	RJMP _0x20C0011
                 _0x2020019:
000cca 85ac      	LDD  R26,Y+12
000ccb 85bd      	LDD  R27,Y+12+1
000ccc 9692      	ADIW R26,34
000ccd 940e 2120 	CALL __GETD1P
                +
000ccf 83ec     +STD Y + 4 , R30
000cd0 83fd     +STD Y + 4 + 1 , R31
000cd1 836e     +STD Y + 4 + 2 , R22
000cd2 837f     +STD Y + 4 + 3 , R23
                 	__PUTD1S 4
000cd3 85ac      	LDD  R26,Y+12
000cd4 85bd      	LDD  R27,Y+12+1
000cd5 91ec      	LD   R30,X
000cd6 e0f0      	LDI  R31,0
000cd7 30e1      	CPI  R30,LOW(0x1)
000cd8 e0a0      	LDI  R26,HIGH(0x1)
000cd9 07fa      	CPC  R31,R26
000cda f009      	BREQ PC+2
000cdb c054      	RJMP _0x202001F
                +
000cdc 8528     +LDD R18 , Y + 8
000cdd 8539     +LDD R19 , Y + 8 + 1
                 	__GETWRS 18,19,8
000cde 01f9      	MOVW R30,R18
000cdf 95f6      	LSR  R31
000ce0 95e7      	ROR  R30
                +
000ce1 0f2e     +ADD R18 , R30
000ce2 1f3f     +ADC R19 , R31
                 	__ADDWRR 18,19,30,31
000ce3 85ec      	LDD  R30,Y+12
000ce4 85fd      	LDD  R31,Y+12+1
000ce5 93fa      	ST   -Y,R31
000ce6 93ea      	ST   -Y,R30
000ce7 01d9      	MOVW R26,R18
000ce8 e0e0      	LDI  R30,LOW(512)
000ce9 e0f2      	LDI  R31,HIGH(512)
000cea 940e 20d1 	CALL __DIVW21U
                +
000cec 81ae     +LDD R26 , Y + 6
000ced 81bf     +LDD R27 , Y + 6 + 1
000cee 8588     +LDD R24 , Y + 6 + 2
000cef 8599     +LDD R25 , Y + 6 + 3
                 	__GETD2S 6
000cf0 2766      	CLR  R22
000cf1 2777      	CLR  R23
000cf2 940e 2041 	CALL __ADDD21
000cf4 de84      	RCALL _move_window_G101
000cf5 30e0      	CPI  R30,0
000cf6 f009      	BREQ _0x2020020
000cf7 c090      	RJMP _0x202001E
                 _0x2020020:
000cf8 85ac      	LDD  R26,Y+12
000cf9 85bd      	LDD  R27,Y+12+1
000cfa 96d2      	ADIW R26,50
000cfb 01f9      	MOVW R30,R18
000cfc 70f1      	ANDI R31,HIGH(0x1FF)
000cfd 0fae      	ADD  R26,R30
000cfe 1fbf      	ADC  R27,R31
000cff 910c      	LD   R16,X
000d00 2711      	CLR  R17
                +
000d01 5f2f     +SUBI R18 , LOW ( - 1 )
000d02 4f3f     +SBCI R19 , HIGH ( - 1 )
                 	__ADDWRN 18,19,1
000d03 85ec      	LDD  R30,Y+12
000d04 85fd      	LDD  R31,Y+12+1
000d05 93fa      	ST   -Y,R31
000d06 93ea      	ST   -Y,R30
000d07 01d9      	MOVW R26,R18
000d08 e0e0      	LDI  R30,LOW(512)
000d09 e0f2      	LDI  R31,HIGH(512)
000d0a 940e 20d1 	CALL __DIVW21U
                +
000d0c 81ae     +LDD R26 , Y + 6
000d0d 81bf     +LDD R27 , Y + 6 + 1
000d0e 8588     +LDD R24 , Y + 6 + 2
000d0f 8599     +LDD R25 , Y + 6 + 3
                 	__GETD2S 6
000d10 2766      	CLR  R22
000d11 2777      	CLR  R23
000d12 940e 2041 	CALL __ADDD21
000d14 de64      	RCALL _move_window_G101
000d15 30e0      	CPI  R30,0
000d16 f009      	BREQ _0x2020021
000d17 c070      	RJMP _0x202001E
                 _0x2020021:
000d18 85ac      	LDD  R26,Y+12
000d19 85bd      	LDD  R27,Y+12+1
000d1a 96d2      	ADIW R26,50
000d1b 01f9      	MOVW R30,R18
000d1c 70f1      	ANDI R31,HIGH(0x1FF)
000d1d 0fae      	ADD  R26,R30
000d1e 1fbf      	ADC  R27,R31
000d1f 91ec      	LD   R30,X
000d20 2ffe      	MOV  R31,R30
000d21 e0e0      	LDI  R30,0
                +
000d22 2b0e     +OR R16 , R30
000d23 2b1f     +OR R17 , R31
                 	__ORWRR 16,17,30,31
000d24 85e8      	LDD  R30,Y+8
000d25 70e1      	ANDI R30,LOW(0x1)
000d26 f021      	BREQ _0x2020022
000d27 01f8      	MOVW R30,R16
000d28 940e 207f 	CALL __LSRW4
000d2a c002      	RJMP _0x202027A
                 _0x2020022:
000d2b 01f8      	MOVW R30,R16
000d2c 70ff      	ANDI R31,HIGH(0xFFF)
                 _0x202027A:
000d2d 2766      	CLR  R22
000d2e 2777      	CLR  R23
000d2f c05c      	RJMP _0x20C0011
                 _0x202001F:
000d30 30e2      	CPI  R30,LOW(0x2)
000d31 e0a0      	LDI  R26,HIGH(0x2)
000d32 07fa      	CPC  R31,R26
000d33 f539      	BRNE _0x2020025
000d34 85ec      	LDD  R30,Y+12
000d35 85fd      	LDD  R31,Y+12+1
000d36 93fa      	ST   -Y,R31
000d37 93ea      	ST   -Y,R30
                +
000d38 85aa     +LDD R26 , Y + 10
000d39 85bb     +LDD R27 , Y + 10 + 1
000d3a 858c     +LDD R24 , Y + 10 + 2
000d3b 859d     +LDD R25 , Y + 10 + 3
                 	__GETD2S 10
                +
000d3c e0e0     +LDI R30 , LOW ( 0x100 )
000d3d e0f1     +LDI R31 , HIGH ( 0x100 )
000d3e e060     +LDI R22 , BYTE3 ( 0x100 )
000d3f e070     +LDI R23 , BYTE4 ( 0x100 )
                 	__GETD1N 0x100
000d40 940e 20e9 	CALL __DIVD21U
                +
000d42 81ae     +LDD R26 , Y + 6
000d43 81bf     +LDD R27 , Y + 6 + 1
000d44 8588     +LDD R24 , Y + 6 + 2
000d45 8599     +LDD R25 , Y + 6 + 3
                 	__GETD2S 6
000d46 940e 2041 	CALL __ADDD21
000d48 de30      	RCALL _move_window_G101
000d49 30e0      	CPI  R30,0
000d4a f5e9      	BRNE _0x202001E
000d4b 85a8      	LDD  R26,Y+8
000d4c 85b9      	LDD  R27,Y+8+1
000d4d e0e2      	LDI  R30,LOW(2)
000d4e 940e 20cb 	CALL __MULB1W2U
000d50 70f1      	ANDI R31,HIGH(0x1FF)
000d51 85ac      	LDD  R26,Y+12
000d52 85bd      	LDD  R27,Y+12+1
000d53 96d2      	ADIW R26,50
000d54 0fae      	ADD  R26,R30
000d55 1fbf      	ADC  R27,R31
000d56 940e 211c 	CALL __GETW1P
000d58 2766      	CLR  R22
000d59 2777      	CLR  R23
000d5a c031      	RJMP _0x20C0011
                 _0x2020025:
000d5b 30e3      	CPI  R30,LOW(0x3)
000d5c e0a0      	LDI  R26,HIGH(0x3)
000d5d 07fa      	CPC  R31,R26
000d5e f549      	BRNE _0x202001E
000d5f 85ec      	LDD  R30,Y+12
000d60 85fd      	LDD  R31,Y+12+1
000d61 93fa      	ST   -Y,R31
000d62 93ea      	ST   -Y,R30
                +
000d63 85aa     +LDD R26 , Y + 10
000d64 85bb     +LDD R27 , Y + 10 + 1
000d65 858c     +LDD R24 , Y + 10 + 2
000d66 859d     +LDD R25 , Y + 10 + 3
                 	__GETD2S 10
                +
000d67 e8e0     +LDI R30 , LOW ( 0x80 )
000d68 e0f0     +LDI R31 , HIGH ( 0x80 )
000d69 e060     +LDI R22 , BYTE3 ( 0x80 )
000d6a e070     +LDI R23 , BYTE4 ( 0x80 )
                 	__GETD1N 0x80
000d6b 940e 20e9 	CALL __DIVD21U
                +
000d6d 81ae     +LDD R26 , Y + 6
000d6e 81bf     +LDD R27 , Y + 6 + 1
000d6f 8588     +LDD R24 , Y + 6 + 2
000d70 8599     +LDD R25 , Y + 6 + 3
                 	__GETD2S 6
000d71 940e 2041 	CALL __ADDD21
000d73 de05      	RCALL _move_window_G101
000d74 30e0      	CPI  R30,0
000d75 f491      	BRNE _0x202001E
000d76 85a8      	LDD  R26,Y+8
000d77 85b9      	LDD  R27,Y+8+1
000d78 e0e4      	LDI  R30,LOW(4)
000d79 940e 20cb 	CALL __MULB1W2U
000d7b 70f1      	ANDI R31,HIGH(0x1FF)
000d7c 85ac      	LDD  R26,Y+12
000d7d 85bd      	LDD  R27,Y+12+1
000d7e 96d2      	ADIW R26,50
000d7f 0fae      	ADD  R26,R30
000d80 1fbf      	ADC  R27,R31
000d81 940e 2120 	CALL __GETD1P
                +
000d83 7fef     +ANDI R30 , LOW ( 0xFFFFFFF )
000d84 7fff     +ANDI R31 , HIGH ( 0xFFFFFFF )
000d85 7f6f     +ANDI R22 , BYTE3 ( 0xFFFFFFF )
000d86 707f     +ANDI R23 , BYTE4 ( 0xFFFFFFF )
                 	__ANDD1N 0xFFFFFFF
000d87 c004      	RJMP _0x20C0011
                 _0x202001E:
                +
000d88 efef     +LDI R30 , LOW ( 0xFFFFFFFF )
000d89 efff     +LDI R31 , HIGH ( 0xFFFFFFFF )
000d8a ef6f     +LDI R22 , BYTE3 ( 0xFFFFFFFF )
000d8b ef7f     +LDI R23 , BYTE4 ( 0xFFFFFFFF )
                 	__GETD1N 0xFFFFFFFF
                 _0x20C0011:
000d8c 940e 217d 	CALL __LOADLOCR4
000d8e 962e      	ADIW R28,14
000d8f 9508      	RET
                 ; .FEND
                 _put_fat:
                 ; .FSTART _put_fat
000d90 940e 214e 	CALL __PUTPARD2
000d92 9724      	SBIW R28,4
000d93 940e 2174 	CALL __SAVELOCR6
                +
000d95 85ae     +LDD R26 , Y + 14
000d96 85bf     +LDD R27 , Y + 14 + 1
000d97 8988     +LDD R24 , Y + 14 + 2
000d98 8999     +LDD R25 , Y + 14 + 3
                 	__GETD2S 14
                +
000d99 30a2     +CPI R26 , LOW ( 0x2 )
000d9a e0e0     +LDI R30 , HIGH ( 0x2 )
000d9b 07be     +CPC R27 , R30
000d9c e0e0     +LDI R30 , BYTE3 ( 0x2 )
000d9d 078e     +CPC R24 , R30
000d9e e0e0     +LDI R30 , BYTE4 ( 0x2 )
000d9f 079e     +CPC R25 , R30
                 	__CPD2N 0x2
000da0 f060      	BRLO _0x202002A
000da1 89aa      	LDD  R26,Y+18
000da2 89bb      	LDD  R27,Y+18+1
000da3 965e      	ADIW R26,30
000da4 940e 2120 	CALL __GETD1P
                +
000da6 85ae     +LDD R26 , Y + 14
000da7 85bf     +LDD R27 , Y + 14 + 1
000da8 8988     +LDD R24 , Y + 14 + 2
000da9 8999     +LDD R25 , Y + 14 + 3
                 	__GETD2S 14
000daa 940e 216f 	CALL __CPD21
000dac f010      	BRLO _0x2020029
                 _0x202002A:
000dad e052      	LDI  R21,LOW(2)
000dae c0ee      	RJMP _0x202002C
                 _0x2020029:
000daf 89aa      	LDD  R26,Y+18
000db0 89bb      	LDD  R27,Y+18+1
000db1 9692      	ADIW R26,34
000db2 940e 2120 	CALL __GETD1P
                +
000db4 83ee     +STD Y + 6 , R30
000db5 83ff     +STD Y + 6 + 1 , R31
000db6 8768     +STD Y + 6 + 2 , R22
000db7 8779     +STD Y + 6 + 3 , R23
                 	__PUTD1S 6
000db8 89aa      	LDD  R26,Y+18
000db9 89bb      	LDD  R27,Y+18+1
000dba 91ec      	LD   R30,X
000dbb e0f0      	LDI  R31,0
000dbc 30e1      	CPI  R30,LOW(0x1)
000dbd e0a0      	LDI  R26,HIGH(0x1)
000dbe 07fa      	CPC  R31,R26
000dbf f009      	BREQ PC+2
000dc0 c07b      	RJMP _0x2020030
                +
000dc1 850e     +LDD R16 , Y + 14
000dc2 851f     +LDD R17 , Y + 14 + 1
                 	__GETWRS 16,17,14
000dc3 01f8      	MOVW R30,R16
000dc4 95f6      	LSR  R31
000dc5 95e7      	ROR  R30
                +
000dc6 0f0e     +ADD R16 , R30
000dc7 1f1f     +ADC R17 , R31
                 	__ADDWRR 16,17,30,31
000dc8 89ea      	LDD  R30,Y+18
000dc9 89fb      	LDD  R31,Y+18+1
000dca 93fa      	ST   -Y,R31
000dcb 93ea      	ST   -Y,R30
000dcc 01d8      	MOVW R26,R16
000dcd e0e0      	LDI  R30,LOW(512)
000dce e0f2      	LDI  R31,HIGH(512)
000dcf 940e 20d1 	CALL __DIVW21U
                +
000dd1 85a8     +LDD R26 , Y + 8
000dd2 85b9     +LDD R27 , Y + 8 + 1
000dd3 858a     +LDD R24 , Y + 8 + 2
000dd4 859b     +LDD R25 , Y + 8 + 3
                 	__GETD2S 8
000dd5 2766      	CLR  R22
000dd6 2777      	CLR  R23
000dd7 940e 2041 	CALL __ADDD21
000dd9 dd9f      	RCALL _move_window_G101
000dda 2f5e      	MOV  R21,R30
000ddb 3050      	CPI  R21,0
000ddc f009      	BREQ _0x2020031
000ddd c0ba      	RJMP _0x202002F
                 _0x2020031:
000dde 89aa      	LDD  R26,Y+18
000ddf 89bb      	LDD  R27,Y+18+1
000de0 96d2      	ADIW R26,50
000de1 01f8      	MOVW R30,R16
000de2 70f1      	ANDI R31,HIGH(0x1FF)
000de3 0fea      	ADD  R30,R26
000de4 1ffb      	ADC  R31,R27
000de5 019f      	MOVW R18,R30
000de6 85ee      	LDD  R30,Y+14
000de7 70e1      	ANDI R30,LOW(0x1)
000de8 f051      	BREQ _0x2020032
000de9 01d9      	MOVW R26,R18
000dea 91ec      	LD   R30,X
000deb 70ef      	ANDI R30,LOW(0xF)
000dec 2fae      	MOV  R26,R30
000ded 85ea      	LDD  R30,Y+10
000dee e0f0      	LDI  R31,0
000def 940e 2076 	CALL __LSLW4
000df1 2bea      	OR   R30,R26
000df2 c001      	RJMP _0x2020033
                 _0x2020032:
000df3 85ea      	LDD  R30,Y+10
                 _0x2020033:
000df4 01d9      	MOVW R26,R18
000df5 93ec      	ST   X,R30
                +
000df6 5f0f     +SUBI R16 , LOW ( - 1 )
000df7 4f1f     +SBCI R17 , HIGH ( - 1 )
                 	__ADDWRN 16,17,1
000df8 89aa      	LDD  R26,Y+18
000df9 89bb      	LDD  R27,Y+18+1
000dfa 9614      	ADIW R26,4
000dfb e0e1      	LDI  R30,LOW(1)
000dfc 93ec      	ST   X,R30
000dfd 89ea      	LDD  R30,Y+18
000dfe 89fb      	LDD  R31,Y+18+1
000dff 93fa      	ST   -Y,R31
000e00 93ea      	ST   -Y,R30
000e01 01d8      	MOVW R26,R16
000e02 e0e0      	LDI  R30,LOW(512)
000e03 e0f2      	LDI  R31,HIGH(512)
000e04 940e 20d1 	CALL __DIVW21U
                +
000e06 85a8     +LDD R26 , Y + 8
000e07 85b9     +LDD R27 , Y + 8 + 1
000e08 858a     +LDD R24 , Y + 8 + 2
000e09 859b     +LDD R25 , Y + 8 + 3
                 	__GETD2S 8
000e0a 2766      	CLR  R22
000e0b 2777      	CLR  R23
000e0c 940e 2041 	CALL __ADDD21
000e0e dd6a      	RCALL _move_window_G101
000e0f 2f5e      	MOV  R21,R30
000e10 3050      	CPI  R21,0
000e11 f009      	BREQ _0x2020035
000e12 c085      	RJMP _0x202002F
                 _0x2020035:
000e13 89aa      	LDD  R26,Y+18
000e14 89bb      	LDD  R27,Y+18+1
000e15 96d2      	ADIW R26,50
000e16 01f8      	MOVW R30,R16
000e17 70f1      	ANDI R31,HIGH(0x1FF)
000e18 0fea      	ADD  R30,R26
000e19 1ffb      	ADC  R31,R27
000e1a 019f      	MOVW R18,R30
000e1b 85ee      	LDD  R30,Y+14
000e1c 70e1      	ANDI R30,LOW(0x1)
000e1d f059      	BREQ _0x2020036
                +
000e1e 85aa     +LDD R26 , Y + 10
000e1f 85bb     +LDD R27 , Y + 10 + 1
000e20 858c     +LDD R24 , Y + 10 + 2
000e21 859d     +LDD R25 , Y + 10 + 3
                 	__GETD2S 10
000e22 e0e4      	LDI  R30,LOW(4)
000e23 940e 206a 	CALL __LSRD12
000e25 27ff      	CLR  R31
000e26 2766      	CLR  R22
000e27 2777      	CLR  R23
000e28 c010      	RJMP _0x2020037
                 _0x2020036:
000e29 01d9      	MOVW R26,R18
000e2a 91ec      	LD   R30,X
000e2b 7fe0      	ANDI R30,LOW(0xF0)
000e2c 2e1e      	MOV  R1,R30
                +
000e2d 85aa     +LDD R26 , Y + 10
000e2e 85bb     +LDD R27 , Y + 10 + 1
000e2f 858c     +LDD R24 , Y + 10 + 2
000e30 859d     +LDD R25 , Y + 10 + 3
                 	__GETD2S 10
000e31 e0e8      	LDI  R30,LOW(8)
000e32 940e 206a 	CALL __LSRD12
000e34 27ff      	CLR  R31
000e35 2766      	CLR  R22
000e36 2777      	CLR  R23
000e37 70ef      	ANDI R30,LOW(0xF)
000e38 29e1      	OR   R30,R1
                 _0x2020037:
000e39 01d9      	MOVW R26,R18
000e3a 93ec      	ST   X,R30
000e3b c05c      	RJMP _0x202002F
                 _0x2020030:
000e3c 30e2      	CPI  R30,LOW(0x2)
000e3d e0a0      	LDI  R26,HIGH(0x2)
000e3e 07fa      	CPC  R31,R26
000e3f f549      	BRNE _0x2020039
000e40 89ea      	LDD  R30,Y+18
000e41 89fb      	LDD  R31,Y+18+1
000e42 93fa      	ST   -Y,R31
000e43 93ea      	ST   -Y,R30
                +
000e44 89a8     +LDD R26 , Y + 16
000e45 89b9     +LDD R27 , Y + 16 + 1
000e46 898a     +LDD R24 , Y + 16 + 2
000e47 899b     +LDD R25 , Y + 16 + 3
                 	__GETD2S 16
                +
000e48 e0e0     +LDI R30 , LOW ( 0x100 )
000e49 e0f1     +LDI R31 , HIGH ( 0x100 )
000e4a e060     +LDI R22 , BYTE3 ( 0x100 )
000e4b e070     +LDI R23 , BYTE4 ( 0x100 )
                 	__GETD1N 0x100
000e4c 940e 20e9 	CALL __DIVD21U
                +
000e4e 85a8     +LDD R26 , Y + 8
000e4f 85b9     +LDD R27 , Y + 8 + 1
000e50 858a     +LDD R24 , Y + 8 + 2
000e51 859b     +LDD R25 , Y + 8 + 3
                 	__GETD2S 8
000e52 940e 2041 	CALL __ADDD21
000e54 dd24      	RCALL _move_window_G101
000e55 2f5e      	MOV  R21,R30
000e56 3050      	CPI  R21,0
000e57 f009      	BREQ _0x202003A
000e58 c03f      	RJMP _0x202002F
                 _0x202003A:
000e59 85ae      	LDD  R26,Y+14
000e5a 85bf      	LDD  R27,Y+14+1
000e5b e0e2      	LDI  R30,LOW(2)
000e5c 940e 20cb 	CALL __MULB1W2U
000e5e 70f1      	ANDI R31,HIGH(0x1FF)
000e5f 89aa      	LDD  R26,Y+18
000e60 89bb      	LDD  R27,Y+18+1
000e61 96d2      	ADIW R26,50
000e62 0fea      	ADD  R30,R26
000e63 1ffb      	ADC  R31,R27
000e64 85aa      	LDD  R26,Y+10
000e65 85bb      	LDD  R27,Y+10+1
000e66 83a0      	STD  Z+0,R26
000e67 83b1      	STD  Z+1,R27
000e68 c02f      	RJMP _0x202002F
                 _0x2020039:
000e69 30e3      	CPI  R30,LOW(0x3)
000e6a e0a0      	LDI  R26,HIGH(0x3)
000e6b 07fa      	CPC  R31,R26
000e6c f551      	BRNE _0x202003D
000e6d 89ea      	LDD  R30,Y+18
000e6e 89fb      	LDD  R31,Y+18+1
000e6f 93fa      	ST   -Y,R31
000e70 93ea      	ST   -Y,R30
                +
000e71 89a8     +LDD R26 , Y + 16
000e72 89b9     +LDD R27 , Y + 16 + 1
000e73 898a     +LDD R24 , Y + 16 + 2
000e74 899b     +LDD R25 , Y + 16 + 3
                 	__GETD2S 16
                +
000e75 e8e0     +LDI R30 , LOW ( 0x80 )
000e76 e0f0     +LDI R31 , HIGH ( 0x80 )
000e77 e060     +LDI R22 , BYTE3 ( 0x80 )
000e78 e070     +LDI R23 , BYTE4 ( 0x80 )
                 	__GETD1N 0x80
000e79 940e 20e9 	CALL __DIVD21U
                +
000e7b 85a8     +LDD R26 , Y + 8
000e7c 85b9     +LDD R27 , Y + 8 + 1
000e7d 858a     +LDD R24 , Y + 8 + 2
000e7e 859b     +LDD R25 , Y + 8 + 3
                 	__GETD2S 8
000e7f 940e 2041 	CALL __ADDD21
000e81 dcf7      	RCALL _move_window_G101
000e82 2f5e      	MOV  R21,R30
000e83 3050      	CPI  R21,0
000e84 f499      	BRNE _0x202002F
000e85 85ae      	LDD  R26,Y+14
000e86 85bf      	LDD  R27,Y+14+1
000e87 e0e4      	LDI  R30,LOW(4)
000e88 940e 20cb 	CALL __MULB1W2U
000e8a 70f1      	ANDI R31,HIGH(0x1FF)
000e8b 89aa      	LDD  R26,Y+18
000e8c 89bb      	LDD  R27,Y+18+1
000e8d 96d2      	ADIW R26,50
000e8e 0fea      	ADD  R30,R26
000e8f 1ffb      	ADC  R31,R27
                +
000e90 85aa     +LDD R26 , Y + 10
000e91 85bb     +LDD R27 , Y + 10 + 1
000e92 858c     +LDD R24 , Y + 10 + 2
000e93 859d     +LDD R25 , Y + 10 + 3
                 	__GETD2S 10
000e94 940e 2144 	CALL __PUTDZ20
000e96 c001      	RJMP _0x202002F
                 _0x202003D:
000e97 e052      	LDI  R21,LOW(2)
                 _0x202002F:
000e98 89aa      	LDD  R26,Y+18
000e99 89bb      	LDD  R27,Y+18+1
000e9a 9614      	ADIW R26,4
000e9b e0e1      	LDI  R30,LOW(1)
000e9c 93ec      	ST   X,R30
                 _0x202002C:
000e9d 2fe5      	MOV  R30,R21
000e9e 940e 217b 	CALL __LOADLOCR6
000ea0 9664      	ADIW R28,20
000ea1 9508      	RET
                 ; .FEND
                 _remove_chain_G101:
                 ; .FSTART _remove_chain_G101
000ea2 940e 214e 	CALL __PUTPARD2
000ea4 9724      	SBIW R28,4
000ea5 931a      	ST   -Y,R17
                +
000ea6 81ad     +LDD R26 , Y + 5
000ea7 81be     +LDD R27 , Y + 5 + 1
000ea8 818f     +LDD R24 , Y + 5 + 2
000ea9 8598     +LDD R25 , Y + 5 + 3
                 	__GETD2S 5
                +
000eaa 30a2     +CPI R26 , LOW ( 0x2 )
000eab e0e0     +LDI R30 , HIGH ( 0x2 )
000eac 07be     +CPC R27 , R30
000ead e0e0     +LDI R30 , BYTE3 ( 0x2 )
000eae 078e     +CPC R24 , R30
000eaf e0e0     +LDI R30 , BYTE4 ( 0x2 )
000eb0 079e     +CPC R25 , R30
                 	__CPD2N 0x2
000eb1 f060      	BRLO _0x202003F
000eb2 85a9      	LDD  R26,Y+9
000eb3 85ba      	LDD  R27,Y+9+1
000eb4 965e      	ADIW R26,30
000eb5 940e 2120 	CALL __GETD1P
                +
000eb7 81ad     +LDD R26 , Y + 5
000eb8 81be     +LDD R27 , Y + 5 + 1
000eb9 818f     +LDD R24 , Y + 5 + 2
000eba 8598     +LDD R25 , Y + 5 + 3
                 	__GETD2S 5
000ebb 940e 216f 	CALL __CPD21
000ebd f010      	BRLO _0x202003E
                 _0x202003F:
000ebe e012      	LDI  R17,LOW(2)
000ebf c074      	RJMP _0x2020041
                 _0x202003E:
000ec0 e010      	LDI  R17,LOW(0)
                 _0x2020042:
000ec1 85a9      	LDD  R26,Y+9
000ec2 85ba      	LDD  R27,Y+9+1
000ec3 965e      	ADIW R26,30
000ec4 940e 2120 	CALL __GETD1P
                +
000ec6 81ad     +LDD R26 , Y + 5
000ec7 81be     +LDD R27 , Y + 5 + 1
000ec8 818f     +LDD R24 , Y + 5 + 2
000ec9 8598     +LDD R25 , Y + 5 + 3
                 	__GETD2S 5
000eca 940e 216f 	CALL __CPD21
000ecc f008      	BRLO PC+2
000ecd c066      	RJMP _0x2020044
000ece 85e9      	LDD  R30,Y+9
000ecf 85fa      	LDD  R31,Y+9+1
000ed0 93fa      	ST   -Y,R31
000ed1 93ea      	ST   -Y,R30
                +
000ed2 81af     +LDD R26 , Y + 7
000ed3 85b8     +LDD R27 , Y + 7 + 1
000ed4 8589     +LDD R24 , Y + 7 + 2
000ed5 859a     +LDD R25 , Y + 7 + 3
                 	__GETD2S 7
000ed6 ddd1      	RCALL _get_fat
                +
000ed7 83e9     +STD Y + 1 , R30
000ed8 83fa     +STD Y + 1 + 1 , R31
000ed9 836b     +STD Y + 1 + 2 , R22
000eda 837c     +STD Y + 1 + 3 , R23
                 	__PUTD1S 1
000edb 940e 2160 	CALL __CPD10
000edd f409      	BRNE _0x2020045
000ede c055      	RJMP _0x2020044
                 _0x2020045:
                +
000edf 81a9     +LDD R26 , Y + 1
000ee0 81ba     +LDD R27 , Y + 1 + 1
000ee1 818b     +LDD R24 , Y + 1 + 2
000ee2 819c     +LDD R25 , Y + 1 + 3
                 	__GETD2S 1
                +
000ee3 30a1     +CPI R26 , LOW ( 0x1 )
000ee4 e0e0     +LDI R30 , HIGH ( 0x1 )
000ee5 07be     +CPC R27 , R30
000ee6 e0e0     +LDI R30 , BYTE3 ( 0x1 )
000ee7 078e     +CPC R24 , R30
000ee8 e0e0     +LDI R30 , BYTE4 ( 0x1 )
000ee9 079e     +CPC R25 , R30
                 	__CPD2N 0x1
000eea f411      	BRNE _0x2020046
000eeb e012      	LDI  R17,LOW(2)
000eec c047      	RJMP _0x2020044
                 _0x2020046:
                +
000eed 81a9     +LDD R26 , Y + 1
000eee 81ba     +LDD R27 , Y + 1 + 1
000eef 818b     +LDD R24 , Y + 1 + 2
000ef0 819c     +LDD R25 , Y + 1 + 3
                 	__GETD2S 1
                +
000ef1 3faf     +CPI R26 , LOW ( 0xFFFFFFFF )
000ef2 efef     +LDI R30 , HIGH ( 0xFFFFFFFF )
000ef3 07be     +CPC R27 , R30
000ef4 efef     +LDI R30 , BYTE3 ( 0xFFFFFFFF )
000ef5 078e     +CPC R24 , R30
000ef6 efef     +LDI R30 , BYTE4 ( 0xFFFFFFFF )
000ef7 079e     +CPC R25 , R30
                 	__CPD2N 0xFFFFFFFF
000ef8 f411      	BRNE _0x2020047
000ef9 e011      	LDI  R17,LOW(1)
000efa c039      	RJMP _0x2020044
                 _0x2020047:
000efb 85e9      	LDD  R30,Y+9
000efc 85fa      	LDD  R31,Y+9+1
000efd 93fa      	ST   -Y,R31
000efe 93ea      	ST   -Y,R30
                +
000eff 81ef     +LDD R30 , Y + 7
000f00 85f8     +LDD R31 , Y + 7 + 1
000f01 8569     +LDD R22 , Y + 7 + 2
000f02 857a     +LDD R23 , Y + 7 + 3
                 	__GETD1S 7
000f03 940e 2149 	CALL __PUTPARD1
                +
000f05 e0a0     +LDI R26 , LOW ( 0x0 )
000f06 e0b0     +LDI R27 , HIGH ( 0x0 )
000f07 e080     +LDI R24 , BYTE3 ( 0x0 )
000f08 e090     +LDI R25 , BYTE4 ( 0x0 )
                 	__GETD2N 0x0
000f09 de86      	RCALL _put_fat
000f0a 2f1e      	MOV  R17,R30
000f0b 3010      	CPI  R17,0
000f0c f539      	BRNE _0x2020044
000f0d 85e9      	LDD  R30,Y+9
000f0e 85fa      	LDD  R31,Y+9+1
                +
000f0f 85a6     +LDD R26 , Z + 14
000f10 85b7     +LDD R27 , Z + 14 + 1
000f11 8980     +LDD R24 , Z + 14 + 2
000f12 8991     +LDD R25 , Z + 14 + 3
                 	__GETD2Z 14
                +
000f13 3faf     +CPI R26 , LOW ( 0xFFFFFFFF )
000f14 efef     +LDI R30 , HIGH ( 0xFFFFFFFF )
000f15 07be     +CPC R27 , R30
000f16 efef     +LDI R30 , BYTE3 ( 0xFFFFFFFF )
000f17 078e     +CPC R24 , R30
000f18 efef     +LDI R30 , BYTE4 ( 0xFFFFFFFF )
000f19 079e     +CPC R25 , R30
                 	__CPD2N 0xFFFFFFFF
000f1a f081      	BREQ _0x2020049
000f1b 85a9      	LDD  R26,Y+9
000f1c 85ba      	LDD  R27,Y+9+1
000f1d 961e      	ADIW R26,14
000f1e 940e 2126 	CALL __GETD1P_INC
                +
000f20 5fef     +SUBI R30 , LOW ( - 1 )
000f21 4fff     +SBCI R31 , HIGH ( - 1 )
000f22 4f6f     +SBCI R22 , BYTE3 ( - 1 )
000f23 4f7f     +SBCI R23 , BYTE4 ( - 1 )
                 	__SUBD1N -1
000f24 940e 2130 	CALL __PUTDP1_DEC
000f26 85a9      	LDD  R26,Y+9
000f27 85ba      	LDD  R27,Y+9+1
000f28 9615      	ADIW R26,5
000f29 e0e1      	LDI  R30,LOW(1)
000f2a 93ec      	ST   X,R30
                 _0x2020049:
                +
000f2b 81e9     +LDD R30 , Y + 1
000f2c 81fa     +LDD R31 , Y + 1 + 1
000f2d 816b     +LDD R22 , Y + 1 + 2
000f2e 817c     +LDD R23 , Y + 1 + 3
                 	__GETD1S 1
                +
000f2f 83ed     +STD Y + 5 , R30
000f30 83fe     +STD Y + 5 + 1 , R31
000f31 836f     +STD Y + 5 + 2 , R22
000f32 8778     +STD Y + 5 + 3 , R23
                 	__PUTD1S 5
000f33 cf8d      	RJMP _0x2020042
                 _0x2020044:
                 _0x2020041:
000f34 2fe1      	MOV  R30,R17
000f35 8118      	LDD  R17,Y+0
000f36 c3d1      	RJMP _0x20C000E
                 ; .FEND
                 _create_chain_G101:
                 ; .FSTART _create_chain_G101
000f37 940e 214e 	CALL __PUTPARD2
000f39 9760      	SBIW R28,16
000f3a 89ac      	LDD  R26,Y+20
000f3b 89bd      	LDD  R27,Y+20+1
000f3c 965e      	ADIW R26,30
000f3d 940e 2120 	CALL __GETD1P
000f3f 940e 213f 	CALL __PUTD1S0
                +
000f41 89e8     +LDD R30 , Y + 16
000f42 89f9     +LDD R31 , Y + 16 + 1
000f43 896a     +LDD R22 , Y + 16 + 2
000f44 897b     +LDD R23 , Y + 16 + 3
                 	__GETD1S 16
000f45 940e 2160 	CALL __CPD10
000f47 f4f1      	BRNE _0x202004A
000f48 89ac      	LDD  R26,Y+20
000f49 89bd      	LDD  R27,Y+20+1
000f4a 961a      	ADIW R26,10
000f4b 940e 2120 	CALL __GETD1P
                +
000f4d 83ec     +STD Y + 4 , R30
000f4e 83fd     +STD Y + 4 + 1 , R31
000f4f 836e     +STD Y + 4 + 2 , R22
000f50 837f     +STD Y + 4 + 3 , R23
                 	__PUTD1S 4
                +
000f51 81ac     +LDD R26 , Y + 4
000f52 81bd     +LDD R27 , Y + 4 + 1
000f53 818e     +LDD R24 , Y + 4 + 2
000f54 819f     +LDD R25 , Y + 4 + 3
                 	__GETD2S 4
000f55 940e 2164 	CALL __CPD02
000f57 f029      	BREQ _0x202004C
000f58 940e 2135 	CALL __GETD1S0
000f5a 940e 216f 	CALL __CPD21
000f5c f040      	BRLO _0x202004B
                 _0x202004C:
                +
000f5d e0e1     +LDI R30 , LOW ( 0x1 )
000f5e e0f0     +LDI R31 , HIGH ( 0x1 )
000f5f e060     +LDI R22 , BYTE3 ( 0x1 )
000f60 e070     +LDI R23 , BYTE4 ( 0x1 )
                 	__GETD1N 0x1
                +
000f61 83ec     +STD Y + 4 , R30
000f62 83fd     +STD Y + 4 + 1 , R31
000f63 836e     +STD Y + 4 + 2 , R22
000f64 837f     +STD Y + 4 + 3 , R23
                 	__PUTD1S 4
                 _0x202004B:
000f65 c034      	RJMP _0x202004E
                 _0x202004A:
000f66 89ec      	LDD  R30,Y+20
000f67 89fd      	LDD  R31,Y+20+1
000f68 93fa      	ST   -Y,R31
000f69 93ea      	ST   -Y,R30
                +
000f6a 89aa     +LDD R26 , Y + 18
000f6b 89bb     +LDD R27 , Y + 18 + 1
000f6c 898c     +LDD R24 , Y + 18 + 2
000f6d 899d     +LDD R25 , Y + 18 + 3
                 	__GETD2S 18
000f6e dd39      	RCALL _get_fat
                +
000f6f 87ec     +STD Y + 12 , R30
000f70 87fd     +STD Y + 12 + 1 , R31
000f71 876e     +STD Y + 12 + 2 , R22
000f72 877f     +STD Y + 12 + 3 , R23
                 	__PUTD1S 12
                +
000f73 85ac     +LDD R26 , Y + 12
000f74 85bd     +LDD R27 , Y + 12 + 1
000f75 858e     +LDD R24 , Y + 12 + 2
000f76 859f     +LDD R25 , Y + 12 + 3
                 	__GETD2S 12
                +
000f77 30a2     +CPI R26 , LOW ( 0x2 )
000f78 e0e0     +LDI R30 , HIGH ( 0x2 )
000f79 07be     +CPC R27 , R30
000f7a e0e0     +LDI R30 , BYTE3 ( 0x2 )
000f7b 078e     +CPC R24 , R30
000f7c e0e0     +LDI R30 , BYTE4 ( 0x2 )
000f7d 079e     +CPC R25 , R30
                 	__CPD2N 0x2
000f7e f428      	BRSH _0x202004F
                +
000f7f e0e1     +LDI R30 , LOW ( 0x1 )
000f80 e0f0     +LDI R31 , HIGH ( 0x1 )
000f81 e060     +LDI R22 , BYTE3 ( 0x1 )
000f82 e070     +LDI R23 , BYTE4 ( 0x1 )
                 	__GETD1N 0x1
000f83 c0e2      	RJMP _0x20C0010
                 _0x202004F:
000f84 940e 2135 	CALL __GETD1S0
                +
000f86 85ac     +LDD R26 , Y + 12
000f87 85bd     +LDD R27 , Y + 12 + 1
000f88 858e     +LDD R24 , Y + 12 + 2
000f89 859f     +LDD R25 , Y + 12 + 3
                 	__GETD2S 12
000f8a 940e 216f 	CALL __CPD21
000f8c f428      	BRSH _0x2020050
                +
000f8d 85ec     +LDD R30 , Y + 12
000f8e 85fd     +LDD R31 , Y + 12 + 1
000f8f 856e     +LDD R22 , Y + 12 + 2
000f90 857f     +LDD R23 , Y + 12 + 3
                 	__GETD1S 12
000f91 c0d4      	RJMP _0x20C0010
                 _0x2020050:
                +
000f92 89e8     +LDD R30 , Y + 16
000f93 89f9     +LDD R31 , Y + 16 + 1
000f94 896a     +LDD R22 , Y + 16 + 2
000f95 897b     +LDD R23 , Y + 16 + 3
                 	__GETD1S 16
                +
000f96 83ec     +STD Y + 4 , R30
000f97 83fd     +STD Y + 4 + 1 , R31
000f98 836e     +STD Y + 4 + 2 , R22
000f99 837f     +STD Y + 4 + 3 , R23
                 	__PUTD1S 4
                 _0x202004E:
                +
000f9a 81ec     +LDD R30 , Y + 4
000f9b 81fd     +LDD R31 , Y + 4 + 1
000f9c 816e     +LDD R22 , Y + 4 + 2
000f9d 817f     +LDD R23 , Y + 4 + 3
                 	__GETD1S 4
                +
000f9e 87e8     +STD Y + 8 , R30
000f9f 87f9     +STD Y + 8 + 1 , R31
000fa0 876a     +STD Y + 8 + 2 , R22
000fa1 877b     +STD Y + 8 + 3 , R23
                 	__PUTD1S 8
                 _0x2020052:
                +
000fa2 85e8     +LDD R30 , Y + 8
000fa3 85f9     +LDD R31 , Y + 8 + 1
000fa4 856a     +LDD R22 , Y + 8 + 2
000fa5 857b     +LDD R23 , Y + 8 + 3
                 	__GETD1S 8
                +
000fa6 5fef     +SUBI R30 , LOW ( - 1 )
000fa7 4fff     +SBCI R31 , HIGH ( - 1 )
000fa8 4f6f     +SBCI R22 , BYTE3 ( - 1 )
000fa9 4f7f     +SBCI R23 , BYTE4 ( - 1 )
                 	__SUBD1N -1
                +
000faa 87e8     +STD Y + 8 , R30
000fab 87f9     +STD Y + 8 + 1 , R31
000fac 876a     +STD Y + 8 + 2 , R22
000fad 877b     +STD Y + 8 + 3 , R23
                 	__PUTD1S 8
000fae 940e 2135 	CALL __GETD1S0
                +
000fb0 85a8     +LDD R26 , Y + 8
000fb1 85b9     +LDD R27 , Y + 8 + 1
000fb2 858a     +LDD R24 , Y + 8 + 2
000fb3 859b     +LDD R25 , Y + 8 + 3
                 	__GETD2S 8
000fb4 940e 216f 	CALL __CPD21
000fb6 f0c0      	BRLO _0x2020054
                +
000fb7 e0e2     +LDI R30 , LOW ( 0x2 )
000fb8 e0f0     +LDI R31 , HIGH ( 0x2 )
000fb9 e060     +LDI R22 , BYTE3 ( 0x2 )
000fba e070     +LDI R23 , BYTE4 ( 0x2 )
                 	__GETD1N 0x2
                +
000fbb 87e8     +STD Y + 8 , R30
000fbc 87f9     +STD Y + 8 + 1 , R31
000fbd 876a     +STD Y + 8 + 2 , R22
000fbe 877b     +STD Y + 8 + 3 , R23
                 	__PUTD1S 8
                +
000fbf 81ec     +LDD R30 , Y + 4
000fc0 81fd     +LDD R31 , Y + 4 + 1
000fc1 816e     +LDD R22 , Y + 4 + 2
000fc2 817f     +LDD R23 , Y + 4 + 3
                 	__GETD1S 4
                +
000fc3 85a8     +LDD R26 , Y + 8
000fc4 85b9     +LDD R27 , Y + 8 + 1
000fc5 858a     +LDD R24 , Y + 8 + 2
000fc6 859b     +LDD R25 , Y + 8 + 3
                 	__GETD2S 8
000fc7 940e 216a 	CALL __CPD12
000fc9 f428      	BRSH _0x2020055
                +
000fca e0e0     +LDI R30 , LOW ( 0x0 )
000fcb e0f0     +LDI R31 , HIGH ( 0x0 )
000fcc e060     +LDI R22 , BYTE3 ( 0x0 )
000fcd e070     +LDI R23 , BYTE4 ( 0x0 )
                 	__GETD1N 0x0
000fce c097      	RJMP _0x20C0010
                 _0x2020055:
                 _0x2020054:
000fcf 89ec      	LDD  R30,Y+20
000fd0 89fd      	LDD  R31,Y+20+1
000fd1 93fa      	ST   -Y,R31
000fd2 93ea      	ST   -Y,R30
                +
000fd3 85aa     +LDD R26 , Y + 10
000fd4 85bb     +LDD R27 , Y + 10 + 1
000fd5 858c     +LDD R24 , Y + 10 + 2
000fd6 859d     +LDD R25 , Y + 10 + 3
                 	__GETD2S 10
000fd7 dcd0      	RCALL _get_fat
                +
000fd8 87ec     +STD Y + 12 , R30
000fd9 87fd     +STD Y + 12 + 1 , R31
000fda 876e     +STD Y + 12 + 2 , R22
000fdb 877f     +STD Y + 12 + 3 , R23
                 	__PUTD1S 12
000fdc 940e 2160 	CALL __CPD10
000fde f151      	BREQ _0x2020053
                +
000fdf 85ac     +LDD R26 , Y + 12
000fe0 85bd     +LDD R27 , Y + 12 + 1
000fe1 858e     +LDD R24 , Y + 12 + 2
000fe2 859f     +LDD R25 , Y + 12 + 3
                 	__GETD2S 12
                +
000fe3 3faf     +CPI R26 , LOW ( 0xFFFFFFFF )
000fe4 efef     +LDI R30 , HIGH ( 0xFFFFFFFF )
000fe5 07be     +CPC R27 , R30
000fe6 efef     +LDI R30 , BYTE3 ( 0xFFFFFFFF )
000fe7 078e     +CPC R24 , R30
000fe8 efef     +LDI R30 , BYTE4 ( 0xFFFFFFFF )
000fe9 079e     +CPC R25 , R30
                 	__CPD2N 0xFFFFFFFF
000fea f041      	BREQ _0x2020058
                +
000feb 30a1     +CPI R26 , LOW ( 0x1 )
000fec e0e0     +LDI R30 , HIGH ( 0x1 )
000fed 07be     +CPC R27 , R30
000fee e0e0     +LDI R30 , BYTE3 ( 0x1 )
000fef 078e     +CPC R24 , R30
000ff0 e0e0     +LDI R30 , BYTE4 ( 0x1 )
000ff1 079e     +CPC R25 , R30
                 	__CPD2N 0x1
000ff2 f429      	BRNE _0x2020057
                 _0x2020058:
                +
000ff3 85ec     +LDD R30 , Y + 12
000ff4 85fd     +LDD R31 , Y + 12 + 1
000ff5 856e     +LDD R22 , Y + 12 + 2
000ff6 857f     +LDD R23 , Y + 12 + 3
                 	__GETD1S 12
000ff7 c06e      	RJMP _0x20C0010
                 _0x2020057:
                +
000ff8 81ec     +LDD R30 , Y + 4
000ff9 81fd     +LDD R31 , Y + 4 + 1
000ffa 816e     +LDD R22 , Y + 4 + 2
000ffb 817f     +LDD R23 , Y + 4 + 3
                 	__GETD1S 4
                +
000ffc 85a8     +LDD R26 , Y + 8
000ffd 85b9     +LDD R27 , Y + 8 + 1
000ffe 858a     +LDD R24 , Y + 8 + 2
000fff 859b     +LDD R25 , Y + 8 + 3
                 	__GETD2S 8
001000 940e 216a 	CALL __CPD12
001002 f429      	BRNE _0x202005A
                +
001003 e0e0     +LDI R30 , LOW ( 0x0 )
001004 e0f0     +LDI R31 , HIGH ( 0x0 )
001005 e060     +LDI R22 , BYTE3 ( 0x0 )
001006 e070     +LDI R23 , BYTE4 ( 0x0 )
                 	__GETD1N 0x0
001007 c05e      	RJMP _0x20C0010
                 _0x202005A:
001008 cf99      	RJMP _0x2020052
                 _0x2020053:
001009 89ec      	LDD  R30,Y+20
00100a 89fd      	LDD  R31,Y+20+1
00100b 93fa      	ST   -Y,R31
00100c 93ea      	ST   -Y,R30
                +
00100d 85ea     +LDD R30 , Y + 10
00100e 85fb     +LDD R31 , Y + 10 + 1
00100f 856c     +LDD R22 , Y + 10 + 2
001010 857d     +LDD R23 , Y + 10 + 3
                 	__GETD1S 10
001011 940e 2149 	CALL __PUTPARD1
                +
001013 efaf     +LDI R26 , LOW ( 0xFFFFFFF )
001014 efbf     +LDI R27 , HIGH ( 0xFFFFFFF )
001015 ef8f     +LDI R24 , BYTE3 ( 0xFFFFFFF )
001016 e09f     +LDI R25 , BYTE4 ( 0xFFFFFFF )
                 	__GETD2N 0xFFFFFFF
001017 dd78      	RCALL _put_fat
001018 30e0      	CPI  R30,0
001019 f029      	BREQ _0x202005B
                +
00101a efef     +LDI R30 , LOW ( 0xFFFFFFFF )
00101b efff     +LDI R31 , HIGH ( 0xFFFFFFFF )
00101c ef6f     +LDI R22 , BYTE3 ( 0xFFFFFFFF )
00101d ef7f     +LDI R23 , BYTE4 ( 0xFFFFFFFF )
                 	__GETD1N 0xFFFFFFFF
00101e c047      	RJMP _0x20C0010
                 _0x202005B:
                +
00101f 89e8     +LDD R30 , Y + 16
001020 89f9     +LDD R31 , Y + 16 + 1
001021 896a     +LDD R22 , Y + 16 + 2
001022 897b     +LDD R23 , Y + 16 + 3
                 	__GETD1S 16
001023 940e 2160 	CALL __CPD10
001025 f0b1      	BREQ _0x202005C
001026 89ec      	LDD  R30,Y+20
001027 89fd      	LDD  R31,Y+20+1
001028 93fa      	ST   -Y,R31
001029 93ea      	ST   -Y,R30
                +
00102a 89ea     +LDD R30 , Y + 18
00102b 89fb     +LDD R31 , Y + 18 + 1
00102c 896c     +LDD R22 , Y + 18 + 2
00102d 897d     +LDD R23 , Y + 18 + 3
                 	__GETD1S 18
00102e 940e 2149 	CALL __PUTPARD1
                +
001030 85ae     +LDD R26 , Y + 14
001031 85bf     +LDD R27 , Y + 14 + 1
001032 8988     +LDD R24 , Y + 14 + 2
001033 8999     +LDD R25 , Y + 14 + 3
                 	__GETD2S 14
001034 dd5b      	RCALL _put_fat
001035 30e0      	CPI  R30,0
001036 f029      	BREQ _0x202005D
                +
001037 efef     +LDI R30 , LOW ( 0xFFFFFFFF )
001038 efff     +LDI R31 , HIGH ( 0xFFFFFFFF )
001039 ef6f     +LDI R22 , BYTE3 ( 0xFFFFFFFF )
00103a ef7f     +LDI R23 , BYTE4 ( 0xFFFFFFFF )
                 	__GETD1N 0xFFFFFFFF
00103b c02a      	RJMP _0x20C0010
                 _0x202005D:
                 _0x202005C:
                +
00103c 85e8     +LDD R30 , Y + 8
00103d 85f9     +LDD R31 , Y + 8 + 1
00103e 856a     +LDD R22 , Y + 8 + 2
00103f 857b     +LDD R23 , Y + 8 + 3
                 	__GETD1S 8
                +
001040 89ac     +LDD R26 , Y + 20
001041 89bd     +LDD R27 , Y + 20 + 1
001042 961a     +ADIW R26 , 10
001043 940e 212b+CALL __PUTDP1
                 	__PUTD1SNS 20,10
001045 89ec      	LDD  R30,Y+20
001046 89fd      	LDD  R31,Y+20+1
                +
001047 85a6     +LDD R26 , Z + 14
001048 85b7     +LDD R27 , Z + 14 + 1
001049 8980     +LDD R24 , Z + 14 + 2
00104a 8991     +LDD R25 , Z + 14 + 3
                 	__GETD2Z 14
                +
00104b 3faf     +CPI R26 , LOW ( 0xFFFFFFFF )
00104c efef     +LDI R30 , HIGH ( 0xFFFFFFFF )
00104d 07be     +CPC R27 , R30
00104e efef     +LDI R30 , BYTE3 ( 0xFFFFFFFF )
00104f 078e     +CPC R24 , R30
001050 efef     +LDI R30 , BYTE4 ( 0xFFFFFFFF )
001051 079e     +CPC R25 , R30
                 	__CPD2N 0xFFFFFFFF
001052 f079      	BREQ _0x202005E
001053 89ac      	LDD  R26,Y+20
001054 89bd      	LDD  R27,Y+20+1
001055 961e      	ADIW R26,14
001056 940e 2126 	CALL __GETD1P_INC
001058 9731      	SBIW R30,1
001059 4060      	SBCI R22,0
00105a 4070      	SBCI R23,0
00105b 940e 2130 	CALL __PUTDP1_DEC
00105d 89ac      	LDD  R26,Y+20
00105e 89bd      	LDD  R27,Y+20+1
00105f 9615      	ADIW R26,5
001060 e0e1      	LDI  R30,LOW(1)
001061 93ec      	ST   X,R30
                 _0x202005E:
                +
001062 85e8     +LDD R30 , Y + 8
001063 85f9     +LDD R31 , Y + 8 + 1
001064 856a     +LDD R22 , Y + 8 + 2
001065 857b     +LDD R23 , Y + 8 + 3
                 	__GETD1S 8
                 _0x20C0010:
001066 9666      	ADIW R28,22
001067 9508      	RET
                 ; .FEND
                 _clust2sect:
                 ; .FSTART _clust2sect
001068 940e 214e 	CALL __PUTPARD2
00106a 940e 2135 	CALL __GETD1S0
                +
00106c 50e2     +SUBI R30 , LOW ( 2 )
00106d 40f0     +SBCI R31 , HIGH ( 2 )
00106e 4060     +SBCI R22 , BYTE3 ( 2 )
00106f 4070     +SBCI R23 , BYTE4 ( 2 )
                 	__SUBD1N 2
001070 940e 213f 	CALL __PUTD1S0
001072 81ec      	LDD  R30,Y+4
001073 81fd      	LDD  R31,Y+4+1
                +
001074 8da6     +LDD R26 , Z + 30
001075 8db7     +LDD R27 , Z + 30 + 1
001076 a180     +LDD R24 , Z + 30 + 2
001077 a191     +LDD R25 , Z + 30 + 3
                 	__GETD2Z 30
                +
001078 e0e2     +LDI R30 , LOW ( 0x2 )
001079 e0f0     +LDI R31 , HIGH ( 0x2 )
00107a e060     +LDI R22 , BYTE3 ( 0x2 )
00107b e070     +LDI R23 , BYTE4 ( 0x2 )
                 	__GETD1N 0x2
00107c 940e 2153 	CALL __SWAPD12
00107e 940e 2046 	CALL __SUBD12
001080 940e 213a 	CALL __GETD2S0
001082 940e 216f 	CALL __CPD21
001084 f028      	BRLO _0x202005F
                +
001085 e0e0     +LDI R30 , LOW ( 0x0 )
001086 e0f0     +LDI R31 , HIGH ( 0x0 )
001087 e060     +LDI R22 , BYTE3 ( 0x0 )
001088 e070     +LDI R23 , BYTE4 ( 0x0 )
                 	__GETD1N 0x0
001089 c598      	RJMP _0x20C000A
                 _0x202005F:
00108a 81ec      	LDD  R30,Y+4
00108b 81fd      	LDD  R31,Y+4+1
00108c 81e2      	LDD  R30,Z+2
00108d e0f0      	LDI  R31,0
00108e 940e 213a 	CALL __GETD2S0
001090 940e 2097 	CALL __CWD1
001092 940e 20ab 	CALL __MULD12U
001094 937f      	PUSH R23
001095 936f      	PUSH R22
001096 93ff      	PUSH R31
001097 93ef      	PUSH R30
001098 81ac      	LDD  R26,Y+4
001099 81bd      	LDD  R27,Y+4+1
00109a 969a      	ADIW R26,42
00109b 940e 2120 	CALL __GETD1P
00109d 91af      	POP  R26
00109e 91bf      	POP  R27
00109f 918f      	POP  R24
0010a0 919f      	POP  R25
0010a1 940e 203c 	CALL __ADDD12
0010a3 c57e      	RJMP _0x20C000A
                 ; .FEND
                 _dir_seek_G101:
                 ; .FSTART _dir_seek_G101
0010a4 93ba      	ST   -Y,R27
0010a5 93aa      	ST   -Y,R26
0010a6 9724      	SBIW R28,4
0010a7 931a      	ST   -Y,R17
0010a8 930a      	ST   -Y,R16
0010a9 81ee      	LDD  R30,Y+6
0010aa 81ff      	LDD  R31,Y+6+1
                +
0010ab 85a8     +LDD R26 , Y + 8
0010ac 85b9     +LDD R27 , Y + 8 + 1
0010ad 9614     +ADIW R26 , 4
0010ae 93ed     +ST X + , R30
0010af 93fc     +ST X , R31
                 	__PUTW1SNS 8,4
0010b0 85a8      	LDD  R26,Y+8
0010b1 85b9      	LDD  R27,Y+8+1
0010b2 9616      	ADIW R26,6
0010b3 940e 2120 	CALL __GETD1P
                +
0010b5 83ea     +STD Y + 2 , R30
0010b6 83fb     +STD Y + 2 + 1 , R31
0010b7 836c     +STD Y + 2 + 2 , R22
0010b8 837d     +STD Y + 2 + 3 , R23
                 	__PUTD1S 2
                +
0010b9 81aa     +LDD R26 , Y + 2
0010ba 81bb     +LDD R27 , Y + 2 + 1
0010bb 818c     +LDD R24 , Y + 2 + 2
0010bc 819d     +LDD R25 , Y + 2 + 3
                 	__GETD2S 2
                +
0010bd 30a1     +CPI R26 , LOW ( 0x1 )
0010be e0e0     +LDI R30 , HIGH ( 0x1 )
0010bf 07be     +CPC R27 , R30
0010c0 e0e0     +LDI R30 , BYTE3 ( 0x1 )
0010c1 078e     +CPC R24 , R30
0010c2 e0e0     +LDI R30 , BYTE4 ( 0x1 )
0010c3 079e     +CPC R25 , R30
                 	__CPD2N 0x1
0010c4 f079      	BREQ _0x2020061
0010c5 85a8      	LDD  R26,Y+8
0010c6 85b9      	LDD  R27,Y+8+1
0010c7 940e 211c 	CALL __GETW1P
0010c9 967e      	ADIW R30,30
0010ca 01df      	MOVW R26,R30
0010cb 940e 2120 	CALL __GETD1P
                +
0010cd 81aa     +LDD R26 , Y + 2
0010ce 81bb     +LDD R27 , Y + 2 + 1
0010cf 818c     +LDD R24 , Y + 2 + 2
0010d0 819d     +LDD R25 , Y + 2 + 3
                 	__GETD2S 2
0010d1 940e 216f 	CALL __CPD21
0010d3 f010      	BRLO _0x2020060
                 _0x2020061:
0010d4 e0e2      	LDI  R30,LOW(2)
0010d5 c0c6      	RJMP _0x20C000F
                 _0x2020060:
                +
0010d6 81ea     +LDD R30 , Y + 2
0010d7 81fb     +LDD R31 , Y + 2 + 1
0010d8 816c     +LDD R22 , Y + 2 + 2
0010d9 817d     +LDD R23 , Y + 2 + 3
                 	__GETD1S 2
0010da 940e 2160 	CALL __CPD10
0010dc f439      	BRNE _0x2020064
0010dd 85a8      	LDD  R26,Y+8
0010de 85b9      	LDD  R27,Y+8+1
0010df 940e 211c 	CALL __GETW1P
0010e1 81a0      	LD   R26,Z
0010e2 30a3      	CPI  R26,LOW(0x3)
0010e3 f009      	BREQ _0x2020065
                 _0x2020064:
0010e4 c00c      	RJMP _0x2020063
                 _0x2020065:
0010e5 85a8      	LDD  R26,Y+8
0010e6 85b9      	LDD  R27,Y+8+1
0010e7 940e 211c 	CALL __GETW1P
0010e9 96b6      	ADIW R30,38
0010ea 01df      	MOVW R26,R30
0010eb 940e 2120 	CALL __GETD1P
                +
0010ed 83ea     +STD Y + 2 , R30
0010ee 83fb     +STD Y + 2 + 1 , R31
0010ef 836c     +STD Y + 2 + 2 , R22
0010f0 837d     +STD Y + 2 + 3 , R23
                 	__PUTD1S 2
                 _0x2020063:
                +
0010f1 81ea     +LDD R30 , Y + 2
0010f2 81fb     +LDD R31 , Y + 2 + 1
0010f3 816c     +LDD R22 , Y + 2 + 2
0010f4 817d     +LDD R23 , Y + 2 + 3
                 	__GETD1S 2
0010f5 940e 2160 	CALL __CPD10
0010f7 f4e9      	BRNE _0x2020066
                +
0010f8 85a8     +LDD R26 , Y + 8
0010f9 85b9     +LDD R27 , Y + 8 + 1
0010fa 961a     +ADIW R26 , 10
0010fb 940e 212b+CALL __PUTDP1
                 	__PUTD1SNS 8,10
0010fd 85a8      	LDD  R26,Y+8
0010fe 85b9      	LDD  R27,Y+8+1
0010ff 940e 211c 	CALL __GETW1P
001101 9638      	ADIW R30,8
001102 01df      	MOVW R26,R30
001103 940e 211c 	CALL __GETW1P
001105 81ae      	LDD  R26,Y+6
001106 81bf      	LDD  R27,Y+6+1
001107 17ae      	CP   R26,R30
001108 07bf      	CPC  R27,R31
001109 f010      	BRLO _0x2020067
00110a e0e2      	LDI  R30,LOW(2)
00110b c090      	RJMP _0x20C000F
                 _0x2020067:
00110c 85a8      	LDD  R26,Y+8
00110d 85b9      	LDD  R27,Y+8+1
00110e 940e 211c 	CALL __GETW1P
001110 96b6      	ADIW R30,38
001111 01df      	MOVW R26,R30
001112 940e 2120 	CALL __GETD1P
001114 c063      	RJMP _0x202027B
                 _0x2020066:
001115 85a8      	LDD  R26,Y+8
001116 85b9      	LDD  R27,Y+8+1
001117 940e 211c 	CALL __GETW1P
001119 81e2      	LDD  R30,Z+2
00111a e1a0      	LDI  R26,LOW(16)
00111b 9fea      	MUL  R30,R26
00111c 0180      	MOVW R16,R0
                 _0x2020069:
00111d 81ae      	LDD  R26,Y+6
00111e 81bf      	LDD  R27,Y+6+1
00111f 17a0      	CP   R26,R16
001120 07b1      	CPC  R27,R17
001121 f408      	BRSH PC+2
001122 c041      	RJMP _0x202006B
001123 85a8      	LDD  R26,Y+8
001124 85b9      	LDD  R27,Y+8+1
001125 940e 211c 	CALL __GETW1P
001127 93fa      	ST   -Y,R31
001128 93ea      	ST   -Y,R30
                +
001129 81ac     +LDD R26 , Y + 4
00112a 81bd     +LDD R27 , Y + 4 + 1
00112b 818e     +LDD R24 , Y + 4 + 2
00112c 819f     +LDD R25 , Y + 4 + 3
                 	__GETD2S 4
00112d db7a      	RCALL _get_fat
                +
00112e 83ea     +STD Y + 2 , R30
00112f 83fb     +STD Y + 2 + 1 , R31
001130 836c     +STD Y + 2 + 2 , R22
001131 837d     +STD Y + 2 + 3 , R23
                 	__PUTD1S 2
                +
001132 81aa     +LDD R26 , Y + 2
001133 81bb     +LDD R27 , Y + 2 + 1
001134 818c     +LDD R24 , Y + 2 + 2
001135 819d     +LDD R25 , Y + 2 + 3
                 	__GETD2S 2
                +
001136 3faf     +CPI R26 , LOW ( 0xFFFFFFFF )
001137 efef     +LDI R30 , HIGH ( 0xFFFFFFFF )
001138 07be     +CPC R27 , R30
001139 efef     +LDI R30 , BYTE3 ( 0xFFFFFFFF )
00113a 078e     +CPC R24 , R30
00113b efef     +LDI R30 , BYTE4 ( 0xFFFFFFFF )
00113c 079e     +CPC R25 , R30
                 	__CPD2N 0xFFFFFFFF
00113d f411      	BRNE _0x202006C
00113e e0e1      	LDI  R30,LOW(1)
00113f c05c      	RJMP _0x20C000F
                 _0x202006C:
                +
001140 81aa     +LDD R26 , Y + 2
001141 81bb     +LDD R27 , Y + 2 + 1
001142 818c     +LDD R24 , Y + 2 + 2
001143 819d     +LDD R25 , Y + 2 + 3
                 	__GETD2S 2
                +
001144 30a2     +CPI R26 , LOW ( 0x2 )
001145 e0e0     +LDI R30 , HIGH ( 0x2 )
001146 07be     +CPC R27 , R30
001147 e0e0     +LDI R30 , BYTE3 ( 0x2 )
001148 078e     +CPC R24 , R30
001149 e0e0     +LDI R30 , BYTE4 ( 0x2 )
00114a 079e     +CPC R25 , R30
                 	__CPD2N 0x2
00114b f078      	BRLO _0x202006E
00114c 85a8      	LDD  R26,Y+8
00114d 85b9      	LDD  R27,Y+8+1
00114e 940e 211c 	CALL __GETW1P
001150 967e      	ADIW R30,30
001151 01df      	MOVW R26,R30
001152 940e 2120 	CALL __GETD1P
                +
001154 81aa     +LDD R26 , Y + 2
001155 81bb     +LDD R27 , Y + 2 + 1
001156 818c     +LDD R24 , Y + 2 + 2
001157 819d     +LDD R25 , Y + 2 + 3
                 	__GETD2S 2
001158 940e 216f 	CALL __CPD21
00115a f010      	BRLO _0x202006D
                 _0x202006E:
00115b e0e2      	LDI  R30,LOW(2)
00115c c03f      	RJMP _0x20C000F
                 _0x202006D:
00115d 81ee      	LDD  R30,Y+6
00115e 81ff      	LDD  R31,Y+6+1
00115f 1be0      	SUB  R30,R16
001160 0bf1      	SBC  R31,R17
001161 83ee      	STD  Y+6,R30
001162 83ff      	STD  Y+6+1,R31
001163 cfb9      	RJMP _0x2020069
                 _0x202006B:
                +
001164 81ea     +LDD R30 , Y + 2
001165 81fb     +LDD R31 , Y + 2 + 1
001166 816c     +LDD R22 , Y + 2 + 2
001167 817d     +LDD R23 , Y + 2 + 3
                 	__GETD1S 2
                +
001168 85a8     +LDD R26 , Y + 8
001169 85b9     +LDD R27 , Y + 8 + 1
00116a 961a     +ADIW R26 , 10
00116b 940e 212b+CALL __PUTDP1
                 	__PUTD1SNS 8,10
00116d 85a8      	LDD  R26,Y+8
00116e 85b9      	LDD  R27,Y+8+1
00116f 940e 211c 	CALL __GETW1P
001171 93fa      	ST   -Y,R31
001172 93ea      	ST   -Y,R30
                +
001173 81ac     +LDD R26 , Y + 4
001174 81bd     +LDD R27 , Y + 4 + 1
001175 818e     +LDD R24 , Y + 4 + 2
001176 819f     +LDD R25 , Y + 4 + 3
                 	__GETD2S 4
001177 def0      	RCALL _clust2sect
                 _0x202027B:
001178 01df      	MOVW R26,R30
001179 01cb      	MOVW R24,R22
00117a 81ee      	LDD  R30,Y+6
00117b 81ff      	LDD  R31,Y+6+1
00117c 940e 207f 	CALL __LSRW4
00117e 2766      	CLR  R22
00117f 2777      	CLR  R23
001180 940e 203c 	CALL __ADDD12
                +
001182 85a8     +LDD R26 , Y + 8
001183 85b9     +LDD R27 , Y + 8 + 1
001184 961e     +ADIW R26 , 14
001185 940e 212b+CALL __PUTDP1
                 	__PUTD1SNS 8,14
001187 85a8      	LDD  R26,Y+8
001188 85b9      	LDD  R27,Y+8+1
001189 940e 211c 	CALL __GETW1P
00118b 96f2      	ADIW R30,50
00118c 01df      	MOVW R26,R30
00118d 81ee      	LDD  R30,Y+6
00118e 81ff      	LDD  R31,Y+6+1
00118f 70ef      	ANDI R30,LOW(0xF)
001190 70f0      	ANDI R31,HIGH(0xF)
001191 0fee      	LSL  R30
001192 940e 2076 	CALL __LSLW4
001194 0fea      	ADD  R30,R26
001195 1ffb      	ADC  R31,R27
                +
001196 85a8     +LDD R26 , Y + 8
001197 85b9     +LDD R27 , Y + 8 + 1
001198 9652     +ADIW R26 , 18
001199 93ed     +ST X + , R30
00119a 93fc     +ST X , R31
                 	__PUTW1SNS 8,18
00119b e0e0      	LDI  R30,LOW(0)
                 _0x20C000F:
00119c 8119      	LDD  R17,Y+1
00119d 8108      	LDD  R16,Y+0
00119e 962a      	ADIW R28,10
00119f 9508      	RET
                 ; .FEND
                 _dir_next_G101:
                 ; .FSTART _dir_next_G101
0011a0 93aa      	ST   -Y,R26
0011a1 9724      	SBIW R28,4
0011a2 940e 2176 	CALL __SAVELOCR4
0011a4 85a9      	LDD  R26,Y+9
0011a5 85ba      	LDD  R27,Y+9+1
0011a6 9614      	ADIW R26,4
0011a7 940e 211c 	CALL __GETW1P
0011a9 9631      	ADIW R30,1
0011aa 018f      	MOVW R16,R30
0011ab 2e00      	MOV  R0,R16
0011ac 2a01      	OR   R0,R17
0011ad f041      	BREQ _0x2020071
0011ae 85a9      	LDD  R26,Y+9
0011af 85ba      	LDD  R27,Y+9+1
0011b0 961e      	ADIW R26,14
0011b1 940e 2120 	CALL __GETD1P
0011b3 940e 2160 	CALL __CPD10
0011b5 f411      	BRNE _0x2020070
                 _0x2020071:
0011b6 e0e4      	LDI  R30,LOW(4)
0011b7 c14e      	RJMP _0x20C000D
                 _0x2020070:
0011b8 01f8      	MOVW R30,R16
0011b9 70ef      	ANDI R30,LOW(0xF)
0011ba f009      	BREQ PC+2
0011bb c130      	RJMP _0x2020073
0011bc 85a9      	LDD  R26,Y+9
0011bd 85ba      	LDD  R27,Y+9+1
0011be 961e      	ADIW R26,14
0011bf 940e 2126 	CALL __GETD1P_INC
                +
0011c1 5fef     +SUBI R30 , LOW ( - 1 )
0011c2 4fff     +SBCI R31 , HIGH ( - 1 )
0011c3 4f6f     +SBCI R22 , BYTE3 ( - 1 )
0011c4 4f7f     +SBCI R23 , BYTE4 ( - 1 )
                 	__SUBD1N -1
0011c5 940e 2130 	CALL __PUTDP1_DEC
0011c7 85a9      	LDD  R26,Y+9
0011c8 85ba      	LDD  R27,Y+9+1
0011c9 961a      	ADIW R26,10
0011ca 940e 2120 	CALL __GETD1P
0011cc 940e 2160 	CALL __CPD10
0011ce f471      	BRNE _0x2020074
0011cf 85a9      	LDD  R26,Y+9
0011d0 85ba      	LDD  R27,Y+9+1
0011d1 940e 211c 	CALL __GETW1P
0011d3 9638      	ADIW R30,8
0011d4 01df      	MOVW R26,R30
0011d5 940e 211c 	CALL __GETW1P
0011d7 170e      	CP   R16,R30
0011d8 071f      	CPC  R17,R31
0011d9 f010      	BRLO _0x2020075
0011da e0e4      	LDI  R30,LOW(4)
0011db c12a      	RJMP _0x20C000D
                 _0x2020075:
0011dc c10f      	RJMP _0x2020076
                 _0x2020074:
0011dd 01f8      	MOVW R30,R16
0011de 940e 207f 	CALL __LSRW4
0011e0 010f      	MOVW R0,R30
0011e1 85a9      	LDD  R26,Y+9
0011e2 85ba      	LDD  R27,Y+9+1
0011e3 940e 211c 	CALL __GETW1P
0011e5 81e2      	LDD  R30,Z+2
0011e6 e0f0      	LDI  R31,0
0011e7 9731      	SBIW R30,1
0011e8 21e0      	AND  R30,R0
0011e9 21f1      	AND  R31,R1
0011ea 9730      	SBIW R30,0
0011eb f009      	BREQ PC+2
0011ec c0ff      	RJMP _0x2020077
0011ed 940e 211c 	CALL __GETW1P
0011ef 93fa      	ST   -Y,R31
0011f0 93ea      	ST   -Y,R30
0011f1 85eb      	LDD  R30,Y+11
0011f2 85fc      	LDD  R31,Y+11+1
                +
0011f3 85a2     +LDD R26 , Z + 10
0011f4 85b3     +LDD R27 , Z + 10 + 1
0011f5 8584     +LDD R24 , Z + 10 + 2
0011f6 8595     +LDD R25 , Z + 10 + 3
                 	__GETD2Z 10
0011f7 dab0      	RCALL _get_fat
                +
0011f8 83ec     +STD Y + 4 , R30
0011f9 83fd     +STD Y + 4 + 1 , R31
0011fa 836e     +STD Y + 4 + 2 , R22
0011fb 837f     +STD Y + 4 + 3 , R23
                 	__PUTD1S 4
                +
0011fc 81ac     +LDD R26 , Y + 4
0011fd 81bd     +LDD R27 , Y + 4 + 1
0011fe 818e     +LDD R24 , Y + 4 + 2
0011ff 819f     +LDD R25 , Y + 4 + 3
                 	__GETD2S 4
                +
001200 30a2     +CPI R26 , LOW ( 0x2 )
001201 e0e0     +LDI R30 , HIGH ( 0x2 )
001202 07be     +CPC R27 , R30
001203 e0e0     +LDI R30 , BYTE3 ( 0x2 )
001204 078e     +CPC R24 , R30
001205 e0e0     +LDI R30 , BYTE4 ( 0x2 )
001206 079e     +CPC R25 , R30
                 	__CPD2N 0x2
001207 f410      	BRSH _0x2020078
001208 e0e2      	LDI  R30,LOW(2)
001209 c0fc      	RJMP _0x20C000D
                 _0x2020078:
                +
00120a 81ac     +LDD R26 , Y + 4
00120b 81bd     +LDD R27 , Y + 4 + 1
00120c 818e     +LDD R24 , Y + 4 + 2
00120d 819f     +LDD R25 , Y + 4 + 3
                 	__GETD2S 4
                +
00120e 3faf     +CPI R26 , LOW ( 0xFFFFFFFF )
00120f efef     +LDI R30 , HIGH ( 0xFFFFFFFF )
001210 07be     +CPC R27 , R30
001211 efef     +LDI R30 , BYTE3 ( 0xFFFFFFFF )
001212 078e     +CPC R24 , R30
001213 efef     +LDI R30 , BYTE4 ( 0xFFFFFFFF )
001214 079e     +CPC R25 , R30
                 	__CPD2N 0xFFFFFFFF
001215 f411      	BRNE _0x2020079
001216 e0e1      	LDI  R30,LOW(1)
001217 c0ee      	RJMP _0x20C000D
                 _0x2020079:
001218 85a9      	LDD  R26,Y+9
001219 85ba      	LDD  R27,Y+9+1
00121a 940e 211c 	CALL __GETW1P
00121c 967e      	ADIW R30,30
00121d 01df      	MOVW R26,R30
00121e 940e 2120 	CALL __GETD1P
                +
001220 81ac     +LDD R26 , Y + 4
001221 81bd     +LDD R27 , Y + 4 + 1
001222 818e     +LDD R24 , Y + 4 + 2
001223 819f     +LDD R25 , Y + 4 + 3
                 	__GETD2S 4
001224 940e 216f 	CALL __CPD21
001226 f408      	BRSH PC+2
001227 c0ab      	RJMP _0x202007A
001228 85e8      	LDD  R30,Y+8
001229 30e0      	CPI  R30,0
00122a f411      	BRNE _0x202007B
00122b e0e4      	LDI  R30,LOW(4)
00122c c0d9      	RJMP _0x20C000D
                 _0x202007B:
00122d 85a9      	LDD  R26,Y+9
00122e 85ba      	LDD  R27,Y+9+1
00122f 940e 211c 	CALL __GETW1P
001231 93fa      	ST   -Y,R31
001232 93ea      	ST   -Y,R30
001233 85eb      	LDD  R30,Y+11
001234 85fc      	LDD  R31,Y+11+1
                +
001235 85a2     +LDD R26 , Z + 10
001236 85b3     +LDD R27 , Z + 10 + 1
001237 8584     +LDD R24 , Z + 10 + 2
001238 8595     +LDD R25 , Z + 10 + 3
                 	__GETD2Z 10
001239 dcfd      	RCALL _create_chain_G101
                +
00123a 83ec     +STD Y + 4 , R30
00123b 83fd     +STD Y + 4 + 1 , R31
00123c 836e     +STD Y + 4 + 2 , R22
00123d 837f     +STD Y + 4 + 3 , R23
                 	__PUTD1S 4
00123e 940e 2160 	CALL __CPD10
001240 f411      	BRNE _0x202007C
001241 e0e7      	LDI  R30,LOW(7)
001242 c0c3      	RJMP _0x20C000D
                 _0x202007C:
                +
001243 81ac     +LDD R26 , Y + 4
001244 81bd     +LDD R27 , Y + 4 + 1
001245 818e     +LDD R24 , Y + 4 + 2
001246 819f     +LDD R25 , Y + 4 + 3
                 	__GETD2S 4
                +
001247 30a1     +CPI R26 , LOW ( 0x1 )
001248 e0e0     +LDI R30 , HIGH ( 0x1 )
001249 07be     +CPC R27 , R30
00124a e0e0     +LDI R30 , BYTE3 ( 0x1 )
00124b 078e     +CPC R24 , R30
00124c e0e0     +LDI R30 , BYTE4 ( 0x1 )
00124d 079e     +CPC R25 , R30
                 	__CPD2N 0x1
00124e f411      	BRNE _0x202007D
00124f e0e2      	LDI  R30,LOW(2)
001250 c0b5      	RJMP _0x20C000D
                 _0x202007D:
                +
001251 81ac     +LDD R26 , Y + 4
001252 81bd     +LDD R27 , Y + 4 + 1
001253 818e     +LDD R24 , Y + 4 + 2
001254 819f     +LDD R25 , Y + 4 + 3
                 	__GETD2S 4
                +
001255 3faf     +CPI R26 , LOW ( 0xFFFFFFFF )
001256 efef     +LDI R30 , HIGH ( 0xFFFFFFFF )
001257 07be     +CPC R27 , R30
001258 efef     +LDI R30 , BYTE3 ( 0xFFFFFFFF )
001259 078e     +CPC R24 , R30
00125a efef     +LDI R30 , BYTE4 ( 0xFFFFFFFF )
00125b 079e     +CPC R25 , R30
                 	__CPD2N 0xFFFFFFFF
00125c f411      	BRNE _0x202007E
00125d e0e1      	LDI  R30,LOW(1)
00125e c0a7      	RJMP _0x20C000D
                 _0x202007E:
00125f 85a9      	LDD  R26,Y+9
001260 85ba      	LDD  R27,Y+9+1
001261 940e 211c 	CALL __GETW1P
001263 93fa      	ST   -Y,R31
001264 93ea      	ST   -Y,R30
                +
001265 e0a0     +LDI R26 , LOW ( 0x0 )
001266 e0b0     +LDI R27 , HIGH ( 0x0 )
001267 e080     +LDI R24 , BYTE3 ( 0x0 )
001268 e090     +LDI R25 , BYTE4 ( 0x0 )
                 	__GETD2N 0x0
001269 d90f      	RCALL _move_window_G101
00126a 30e0      	CPI  R30,0
00126b f011      	BREQ _0x202007F
00126c e0e1      	LDI  R30,LOW(1)
00126d c098      	RJMP _0x20C000D
                 _0x202007F:
00126e 85a9      	LDD  R26,Y+9
00126f 85ba      	LDD  R27,Y+9+1
001270 940e 211c 	CALL __GETW1P
001272 96f2      	ADIW R30,50
001273 93fa      	ST   -Y,R31
001274 93ea      	ST   -Y,R30
001275 e0e0      	LDI  R30,LOW(0)
001276 93ea      	ST   -Y,R30
001277 e0a0      	LDI  R26,LOW(512)
001278 e0b2      	LDI  R27,HIGH(512)
001279 940e 2022 	CALL _memset
00127b 85a9      	LDD  R26,Y+9
00127c 85ba      	LDD  R27,Y+9+1
00127d 940e 211c 	CALL __GETW1P
00127f 01df      	MOVW R26,R30
001280 96be      	ADIW R30,46
001281 93ff      	PUSH R31
001282 93ef      	PUSH R30
001283 01fd      	MOVW R30,R26
001284 93fa      	ST   -Y,R31
001285 93ea      	ST   -Y,R30
                +
001286 81ae     +LDD R26 , Y + 6
001287 81bf     +LDD R27 , Y + 6 + 1
001288 8588     +LDD R24 , Y + 6 + 2
001289 8599     +LDD R25 , Y + 6 + 3
                 	__GETD2S 6
00128a dddd      	RCALL _clust2sect
00128b 91af      	POP  R26
00128c 91bf      	POP  R27
00128d 940e 212b 	CALL __PUTDP1
00128f e030      	LDI  R19,LOW(0)
                 _0x2020081:
001290 85a9      	LDD  R26,Y+9
001291 85ba      	LDD  R27,Y+9+1
001292 940e 211c 	CALL __GETW1P
001294 81e2      	LDD  R30,Z+2
001295 173e      	CP   R19,R30
001296 f520      	BRSH _0x2020082
001297 940e 211c 	CALL __GETW1P
001299 9634      	ADIW R30,4
00129a e0a1      	LDI  R26,LOW(1)
00129b 83a0      	STD  Z+0,R26
00129c 85a9      	LDD  R26,Y+9
00129d 85ba      	LDD  R27,Y+9+1
00129e 940e 211c 	CALL __GETW1P
0012a0 93fa      	ST   -Y,R31
0012a1 93ea      	ST   -Y,R30
                +
0012a2 e0a0     +LDI R26 , LOW ( 0x0 )
0012a3 e0b0     +LDI R27 , HIGH ( 0x0 )
0012a4 e080     +LDI R24 , BYTE3 ( 0x0 )
0012a5 e090     +LDI R25 , BYTE4 ( 0x0 )
                 	__GETD2N 0x0
0012a6 d8d2      	RCALL _move_window_G101
0012a7 30e0      	CPI  R30,0
0012a8 f011      	BREQ _0x2020083
0012a9 e0e1      	LDI  R30,LOW(1)
0012aa c05b      	RJMP _0x20C000D
                 _0x2020083:
0012ab 85a9      	LDD  R26,Y+9
0012ac 85ba      	LDD  R27,Y+9+1
0012ad 940e 211c 	CALL __GETW1P
0012af 96be      	ADIW R30,46
0012b0 01df      	MOVW R26,R30
0012b1 940e 2126 	CALL __GETD1P_INC
                +
0012b3 5fef     +SUBI R30 , LOW ( - 1 )
0012b4 4fff     +SBCI R31 , HIGH ( - 1 )
0012b5 4f6f     +SBCI R22 , BYTE3 ( - 1 )
0012b6 4f7f     +SBCI R23 , BYTE4 ( - 1 )
                 	__SUBD1N -1
0012b7 940e 2130 	CALL __PUTDP1_DEC
0012b9 5f3f      	SUBI R19,-1
0012ba cfd5      	RJMP _0x2020081
                 _0x2020082:
0012bb 85a9      	LDD  R26,Y+9
0012bc 85ba      	LDD  R27,Y+9+1
0012bd 940e 211c 	CALL __GETW1P
0012bf 96be      	ADIW R30,46
0012c0 93ff      	PUSH R31
0012c1 93ef      	PUSH R30
0012c2 01df      	MOVW R26,R30
0012c3 940e 2120 	CALL __GETD1P
0012c5 01df      	MOVW R26,R30
0012c6 01cb      	MOVW R24,R22
0012c7 2fe3      	MOV  R30,R19
0012c8 e0f0      	LDI  R31,0
0012c9 940e 2097 	CALL __CWD1
0012cb 940e 2153 	CALL __SWAPD12
0012cd 940e 2046 	CALL __SUBD12
0012cf 91af      	POP  R26
0012d0 91bf      	POP  R27
0012d1 940e 212b 	CALL __PUTDP1
                 _0x202007A:
                +
0012d3 81ec     +LDD R30 , Y + 4
0012d4 81fd     +LDD R31 , Y + 4 + 1
0012d5 816e     +LDD R22 , Y + 4 + 2
0012d6 817f     +LDD R23 , Y + 4 + 3
                 	__GETD1S 4
                +
0012d7 85a9     +LDD R26 , Y + 9
0012d8 85ba     +LDD R27 , Y + 9 + 1
0012d9 961a     +ADIW R26 , 10
0012da 940e 212b+CALL __PUTDP1
                 	__PUTD1SNS 9,10
0012dc 85a9      	LDD  R26,Y+9
0012dd 85ba      	LDD  R27,Y+9+1
0012de 940e 211c 	CALL __GETW1P
0012e0 93fa      	ST   -Y,R31
0012e1 93ea      	ST   -Y,R30
                +
0012e2 81ae     +LDD R26 , Y + 6
0012e3 81bf     +LDD R27 , Y + 6 + 1
0012e4 8588     +LDD R24 , Y + 6 + 2
0012e5 8599     +LDD R25 , Y + 6 + 3
                 	__GETD2S 6
0012e6 dd81      	RCALL _clust2sect
                +
0012e7 85a9     +LDD R26 , Y + 9
0012e8 85ba     +LDD R27 , Y + 9 + 1
0012e9 961e     +ADIW R26 , 14
0012ea 940e 212b+CALL __PUTDP1
                 	__PUTD1SNS 9,14
                 _0x2020077:
                 _0x2020076:
                 _0x2020073:
0012ec 01f8      	MOVW R30,R16
                +
0012ed 85a9     +LDD R26 , Y + 9
0012ee 85ba     +LDD R27 , Y + 9 + 1
0012ef 9614     +ADIW R26 , 4
0012f0 93ed     +ST X + , R30
0012f1 93fc     +ST X , R31
                 	__PUTW1SNS 9,4
0012f2 85a9      	LDD  R26,Y+9
0012f3 85ba      	LDD  R27,Y+9+1
0012f4 940e 211c 	CALL __GETW1P
0012f6 96f2      	ADIW R30,50
0012f7 01df      	MOVW R26,R30
0012f8 01f8      	MOVW R30,R16
0012f9 70ef      	ANDI R30,LOW(0xF)
0012fa 70f0      	ANDI R31,HIGH(0xF)
0012fb 0fee      	LSL  R30
0012fc 940e 2076 	CALL __LSLW4
0012fe 0fea      	ADD  R30,R26
0012ff 1ffb      	ADC  R31,R27
                +
001300 85a9     +LDD R26 , Y + 9
001301 85ba     +LDD R27 , Y + 9 + 1
001302 9652     +ADIW R26 , 18
001303 93ed     +ST X + , R30
001304 93fc     +ST X , R31
                 	__PUTW1SNS 9,18
001305 e0e0      	LDI  R30,LOW(0)
                 _0x20C000D:
001306 940e 217d 	CALL __LOADLOCR4
                 _0x20C000E:
001308 962b      	ADIW R28,11
001309 9508      	RET
                 ; .FEND
                 _dir_find_G101:
                 ; .FSTART _dir_find_G101
00130a 93ba      	ST   -Y,R27
00130b 93aa      	ST   -Y,R26
00130c 940e 2176 	CALL __SAVELOCR4
00130e 81ec      	LDD  R30,Y+4
00130f 81fd      	LDD  R31,Y+4+1
001310 93fa      	ST   -Y,R31
001311 93ea      	ST   -Y,R30
001312 e0a0      	LDI  R26,LOW(0)
001313 e0b0      	LDI  R27,0
001314 dd8f      	RCALL _dir_seek_G101
001315 2f1e      	MOV  R17,R30
001316 3010      	CPI  R17,0
001317 f019      	BREQ _0x2020084
001318 940e 217d 	CALL __LOADLOCR4
00131a c307      	RJMP _0x20C000A
                 _0x2020084:
                 _0x2020086:
00131b 81ac      	LDD  R26,Y+4
00131c 81bd      	LDD  R27,Y+4+1
00131d 940e 211c 	CALL __GETW1P
00131f 93fa      	ST   -Y,R31
001320 93ea      	ST   -Y,R30
001321 81ee      	LDD  R30,Y+6
001322 81ff      	LDD  R31,Y+6+1
                +
001323 85a6     +LDD R26 , Z + 14
001324 85b7     +LDD R27 , Z + 14 + 1
001325 8980     +LDD R24 , Z + 14 + 2
001326 8991     +LDD R25 , Z + 14 + 3
                 	__GETD2Z 14
001327 d851      	RCALL _move_window_G101
001328 2f1e      	MOV  R17,R30
001329 3010      	CPI  R17,0
00132a f541      	BRNE _0x2020087
00132b 81ac      	LDD  R26,Y+4
00132c 81bd      	LDD  R27,Y+4+1
00132d 9652      	ADIW R26,18
00132e 912d      	LD   R18,X+
00132f 913c      	LD   R19,X
001330 01d9      	MOVW R26,R18
001331 910c      	LD   R16,X
001332 3000      	CPI  R16,0
001333 f411      	BRNE _0x2020089
001334 e014      	LDI  R17,LOW(4)
001335 c01d      	RJMP _0x2020087
                 _0x2020089:
001336 01f9      	MOVW R30,R18
001337 85e3      	LDD  R30,Z+11
001338 70e8      	ANDI R30,LOW(0x8)
001339 f471      	BRNE _0x202008B
00133a 933a      	ST   -Y,R19
00133b 932a      	ST   -Y,R18
00133c 81ee      	LDD  R30,Y+6
00133d 81ff      	LDD  R31,Y+6+1
00133e 89a4      	LDD  R26,Z+20
00133f 89b5      	LDD  R27,Z+21
001340 93ba      	ST   -Y,R27
001341 93aa      	ST   -Y,R26
001342 e0ab      	LDI  R26,LOW(11)
001343 e0b0      	LDI  R27,0
001344 940e 1ff7 	CALL _memcmp
001346 30e0      	CPI  R30,0
001347 f009      	BREQ _0x202008C
                 _0x202008B:
001348 c001      	RJMP _0x202008A
                 _0x202008C:
001349 c009      	RJMP _0x2020087
                 _0x202008A:
00134a 81ec      	LDD  R30,Y+4
00134b 81fd      	LDD  R31,Y+4+1
00134c 93fa      	ST   -Y,R31
00134d 93ea      	ST   -Y,R30
00134e e0a0      	LDI  R26,LOW(0)
00134f de50      	RCALL _dir_next_G101
001350 2f1e      	MOV  R17,R30
001351 3010      	CPI  R17,0
001352 f241      	BREQ _0x2020086
                 _0x2020087:
001353 2fe1      	MOV  R30,R17
001354 940e 217d 	CALL __LOADLOCR4
001356 c2cb      	RJMP _0x20C000A
                 ; .FEND
                 _dir_register_G101:
                 ; .FSTART _dir_register_G101
001357 93ba      	ST   -Y,R27
001358 93aa      	ST   -Y,R26
001359 940e 2176 	CALL __SAVELOCR4
00135b 81ec      	LDD  R30,Y+4
00135c 81fd      	LDD  R31,Y+4+1
00135d 93fa      	ST   -Y,R31
00135e 93ea      	ST   -Y,R30
00135f e0a0      	LDI  R26,LOW(0)
001360 e0b0      	LDI  R27,0
001361 dd42      	RCALL _dir_seek_G101
001362 2f1e      	MOV  R17,R30
001363 3010      	CPI  R17,0
001364 f521      	BRNE _0x2020099
                 _0x202009B:
001365 81ac      	LDD  R26,Y+4
001366 81bd      	LDD  R27,Y+4+1
001367 940e 211c 	CALL __GETW1P
001369 93fa      	ST   -Y,R31
00136a 93ea      	ST   -Y,R30
00136b 81ee      	LDD  R30,Y+6
00136c 81ff      	LDD  R31,Y+6+1
                +
00136d 85a6     +LDD R26 , Z + 14
00136e 85b7     +LDD R27 , Z + 14 + 1
00136f 8980     +LDD R24 , Z + 14 + 2
001370 8991     +LDD R25 , Z + 14 + 3
                 	__GETD2Z 14
001371 940e 0b79 	CALL _move_window_G101
001373 2f1e      	MOV  R17,R30
001374 3010      	CPI  R17,0
001375 f499      	BRNE _0x202009C
001376 81ec      	LDD  R30,Y+4
001377 81fd      	LDD  R31,Y+4+1
001378 89a2      	LDD  R26,Z+18
001379 89b3      	LDD  R27,Z+19
00137a 910c      	LD   R16,X
00137b 3e05      	CPI  R16,229
00137c f011      	BREQ _0x202009F
00137d 3000      	CPI  R16,0
00137e f409      	BRNE _0x202009E
                 _0x202009F:
00137f c009      	RJMP _0x202009C
                 _0x202009E:
001380 81ec      	LDD  R30,Y+4
001381 81fd      	LDD  R31,Y+4+1
001382 93fa      	ST   -Y,R31
001383 93ea      	ST   -Y,R30
001384 e0a1      	LDI  R26,LOW(1)
001385 de1a      	RCALL _dir_next_G101
001386 2f1e      	MOV  R17,R30
001387 3010      	CPI  R17,0
001388 f2e1      	BREQ _0x202009B
                 _0x202009C:
                 _0x2020099:
001389 3010      	CPI  R17,0
00138a f5d9      	BRNE _0x20200A1
00138b 81ac      	LDD  R26,Y+4
00138c 81bd      	LDD  R27,Y+4+1
00138d 940e 211c 	CALL __GETW1P
00138f 93fa      	ST   -Y,R31
001390 93ea      	ST   -Y,R30
001391 81ee      	LDD  R30,Y+6
001392 81ff      	LDD  R31,Y+6+1
                +
001393 85a6     +LDD R26 , Z + 14
001394 85b7     +LDD R27 , Z + 14 + 1
001395 8980     +LDD R24 , Z + 14 + 2
001396 8991     +LDD R25 , Z + 14 + 3
                 	__GETD2Z 14
001397 940e 0b79 	CALL _move_window_G101
001399 2f1e      	MOV  R17,R30
00139a 3010      	CPI  R17,0
00139b f551      	BRNE _0x20200A2
00139c 81ac      	LDD  R26,Y+4
00139d 81bd      	LDD  R27,Y+4+1
00139e 9652      	ADIW R26,18
00139f 912d      	LD   R18,X+
0013a0 913c      	LD   R19,X
0013a1 933a      	ST   -Y,R19
0013a2 932a      	ST   -Y,R18
0013a3 e0e0      	LDI  R30,LOW(0)
0013a4 93ea      	ST   -Y,R30
0013a5 e2a0      	LDI  R26,LOW(32)
0013a6 e0b0      	LDI  R27,0
0013a7 940e 2022 	CALL _memset
0013a9 933a      	ST   -Y,R19
0013aa 932a      	ST   -Y,R18
0013ab 81ee      	LDD  R30,Y+6
0013ac 81ff      	LDD  R31,Y+6+1
0013ad 89a4      	LDD  R26,Z+20
0013ae 89b5      	LDD  R27,Z+21
0013af 93ba      	ST   -Y,R27
0013b0 93aa      	ST   -Y,R26
0013b1 e0ab      	LDI  R26,LOW(11)
0013b2 e0b0      	LDI  R27,0
0013b3 940e 2010 	CALL _memcpy
0013b5 81ac      	LDD  R26,Y+4
0013b6 81bd      	LDD  R27,Y+4+1
0013b7 9654      	ADIW R26,20
0013b8 940e 211c 	CALL __GETW1P
0013ba 85e3      	LDD  R30,Z+11
0013bb 71e8      	ANDI R30,LOW(0x18)
                +
0013bc 01d9     +MOVW R26 , R18
0013bd 961c     +ADIW R26 , 12
0013be 93ec     +ST X , R30
                 	__PUTB1RNS 18,12
0013bf 81ac      	LDD  R26,Y+4
0013c0 81bd      	LDD  R27,Y+4+1
0013c1 940e 211c 	CALL __GETW1P
0013c3 9634      	ADIW R30,4
0013c4 e0a1      	LDI  R26,LOW(1)
0013c5 83a0      	STD  Z+0,R26
                 _0x20200A2:
                 _0x20200A1:
0013c6 2fe1      	MOV  R30,R17
0013c7 940e 217d 	CALL __LOADLOCR4
0013c9 c258      	RJMP _0x20C000A
                 ; .FEND
                 _create_name_G101:
                 ; .FSTART _create_name_G101
0013ca 93ba      	ST   -Y,R27
0013cb 93aa      	ST   -Y,R26
0013cc 9725      	SBIW R28,5
0013cd 940e 2174 	CALL __SAVELOCR6
0013cf 85ad      	LDD  R26,Y+13
0013d0 85be      	LDD  R27,Y+13+1
0013d1 9654      	ADIW R26,20
0013d2 914d      	LD   R20,X+
0013d3 915c      	LD   R21,X
0013d4 935a      	ST   -Y,R21
0013d5 934a      	ST   -Y,R20
0013d6 e2e0      	LDI  R30,LOW(32)
0013d7 93ea      	ST   -Y,R30
0013d8 e0ab      	LDI  R26,LOW(11)
0013d9 e0b0      	LDI  R27,0
0013da 940e 2022 	CALL _memset
0013dc e0e0      	LDI  R30,LOW(0)
0013dd 87e8      	STD  Y+8,R30
0013de 87e9      	STD  Y+8+1,R30
0013df 2f1e      	MOV  R17,R30
0013e0 2f2e      	MOV  R18,R30
0013e1 e0e8      	LDI  R30,LOW(8)
0013e2 87ea      	STD  Y+10,R30
0013e3 85ab      	LDD  R26,Y+11
0013e4 85bc      	LDD  R27,Y+11+1
0013e5 940e 211c 	CALL __GETW1P
0013e7 83ee      	STD  Y+6,R30
0013e8 83ff      	STD  Y+6+1,R31
0013e9 85e8      	LDD  R30,Y+8
0013ea 85f9      	LDD  R31,Y+8+1
0013eb 81ae      	LDD  R26,Y+6
0013ec 81bf      	LDD  R27,Y+6+1
0013ed 0fae      	ADD  R26,R30
0013ee 1fbf      	ADC  R27,R31
0013ef 91ac      	LD   R26,X
0013f0 32ae      	CPI  R26,LOW(0x2E)
0013f1 f5a9      	BRNE _0x20200A5
                 _0x20200A7:
0013f2 85e8      	LDD  R30,Y+8
0013f3 85f9      	LDD  R31,Y+8+1
0013f4 9631      	ADIW R30,1
0013f5 87e8      	STD  Y+8,R30
0013f6 87f9      	STD  Y+8+1,R31
0013f7 9731      	SBIW R30,1
0013f8 81ae      	LDD  R26,Y+6
0013f9 81bf      	LDD  R27,Y+6+1
0013fa 0fae      	ADD  R26,R30
0013fb 1fbf      	ADC  R27,R31
0013fc 910c      	LD   R16,X
0013fd 320e      	CPI  R16,46
0013fe f421      	BRNE _0x20200AA
0013ff 85a8      	LDD  R26,Y+8
001400 85b9      	LDD  R27,Y+8+1
001401 9713      	SBIW R26,3
001402 f00c      	BRLT _0x20200A9
                 _0x20200AA:
001403 c007      	RJMP _0x20200A8
                 _0x20200A9:
001404 2fe2      	MOV  R30,R18
001405 5f2f      	SUBI R18,-1
001406 e0f0      	LDI  R31,0
001407 0fe4      	ADD  R30,R20
001408 1ff5      	ADC  R31,R21
001409 8300      	ST   Z,R16
00140a cfe7      	RJMP _0x20200A7
                 _0x20200A8:
00140b 320f      	CPI  R16,47
00140c f021      	BREQ _0x20200AD
00140d 350c      	CPI  R16,92
00140e f011      	BREQ _0x20200AD
00140f 3201      	CPI  R16,33
001410 f408      	BRSH _0x20200AE
                 _0x20200AD:
001411 c002      	RJMP _0x20200AC
                 _0x20200AE:
001412 e0e6      	LDI  R30,LOW(6)
001413 c089      	RJMP _0x20C000B
                 _0x20200AC:
001414 85e8      	LDD  R30,Y+8
001415 85f9      	LDD  R31,Y+8+1
001416 81ae      	LDD  R26,Y+6
001417 81bf      	LDD  R27,Y+6+1
001418 0fea      	ADD  R30,R26
001419 1ffb      	ADC  R31,R27
00141a 85ab      	LDD  R26,Y+11
00141b 85bc      	LDD  R27,Y+11+1
00141c 93ed      	ST   X+,R30
00141d 93fc      	ST   X,R31
00141e 3201      	CPI  R16,33
00141f f410      	BRSH _0x20200AF
001420 e2e4      	LDI  R30,LOW(36)
001421 c001      	RJMP _0x20200B0
                 _0x20200AF:
001422 e2e0      	LDI  R30,LOW(32)
                 _0x20200B0:
                +
001423 01da     +MOVW R26 , R20
001424 961b     +ADIW R26 , 11
001425 93ec     +ST X , R30
                 	__PUTB1RNS 20,11
001426 c075      	RJMP _0x20C000C
                 _0x20200A5:
                 _0x20200B3:
001427 85e8      	LDD  R30,Y+8
001428 85f9      	LDD  R31,Y+8+1
001429 9631      	ADIW R30,1
00142a 87e8      	STD  Y+8,R30
00142b 87f9      	STD  Y+8+1,R31
00142c 9731      	SBIW R30,1
00142d 81ae      	LDD  R26,Y+6
00142e 81bf      	LDD  R27,Y+6+1
00142f 0fae      	ADD  R26,R30
001430 1fbf      	ADC  R27,R31
001431 910c      	LD   R16,X
001432 3201      	CPI  R16,33
001433 f020      	BRLO _0x20200B6
001434 320f      	CPI  R16,47
001435 f011      	BREQ _0x20200B6
001436 350c      	CPI  R16,92
001437 f409      	BRNE _0x20200B5
                 _0x20200B6:
001438 c037      	RJMP _0x20200B4
                 _0x20200B5:
001439 320e      	CPI  R16,46
00143a f019      	BREQ _0x20200B9
00143b 85ea      	LDD  R30,Y+10
00143c 172e      	CP   R18,R30
00143d f068      	BRLO _0x20200B8
                 _0x20200B9:
00143e 85aa      	LDD  R26,Y+10
00143f 30a8      	CPI  R26,LOW(0x8)
001440 f411      	BRNE _0x20200BC
001441 320e      	CPI  R16,46
001442 f011      	BREQ _0x20200BB
                 _0x20200BC:
001443 e0e6      	LDI  R30,LOW(6)
001444 c058      	RJMP _0x20C000B
                 _0x20200BB:
001445 e028      	LDI  R18,LOW(8)
001446 e0eb      	LDI  R30,LOW(11)
001447 87ea      	STD  Y+10,R30
001448 0f11      	LSL  R17
001449 0f11      	LSL  R17
00144a c024      	RJMP _0x20200B2
                 _0x20200B8:
00144b 3800      	CPI  R16,128
00144c f018      	BRLO _0x20200BE
00144d 6013      	ORI  R17,LOW(3)
00144e e0e6      	LDI  R30,LOW(6)
00144f c04d      	RJMP _0x20C000B
                 _0x20200BE:
001450 efec      	LDI  R30,LOW(_k1*2)
001451 e0f1      	LDI  R31,HIGH(_k1*2)
001452 93fa      	ST   -Y,R31
001453 93ea      	ST   -Y,R30
001454 2fa0      	MOV  R26,R16
001455 940e 0b62 	CALL _chk_chrf_G101
001457 9730      	SBIW R30,0
001458 f011      	BREQ _0x20200C4
001459 e0e6      	LDI  R30,LOW(6)
00145a c042      	RJMP _0x20C000B
                 _0x20200C4:
00145b 3401      	CPI  R16,65
00145c f010      	BRLO _0x20200C6
00145d 350b      	CPI  R16,91
00145e f008      	BRLO _0x20200C7
                 _0x20200C6:
00145f c002      	RJMP _0x20200C5
                 _0x20200C7:
001460 6012      	ORI  R17,LOW(2)
001461 c007      	RJMP _0x20200C8
                 _0x20200C5:
001462 3601      	CPI  R16,97
001463 f010      	BRLO _0x20200CA
001464 370b      	CPI  R16,123
001465 f008      	BRLO _0x20200CB
                 _0x20200CA:
001466 c002      	RJMP _0x20200C9
                 _0x20200CB:
001467 6011      	ORI  R17,LOW(1)
001468 5200      	SUBI R16,LOW(32)
                 _0x20200C9:
                 _0x20200C8:
001469 2fe2      	MOV  R30,R18
00146a 5f2f      	SUBI R18,-1
00146b e0f0      	LDI  R31,0
00146c 0fe4      	ADD  R30,R20
00146d 1ff5      	ADC  R31,R21
00146e 8300      	ST   Z,R16
                 _0x20200B2:
00146f cfb7      	RJMP _0x20200B3
                 _0x20200B4:
001470 85e8      	LDD  R30,Y+8
001471 85f9      	LDD  R31,Y+8+1
001472 81ae      	LDD  R26,Y+6
001473 81bf      	LDD  R27,Y+6+1
001474 0fea      	ADD  R30,R26
001475 1ffb      	ADC  R31,R27
001476 85ab      	LDD  R26,Y+11
001477 85bc      	LDD  R27,Y+11+1
001478 93ed      	ST   X+,R30
001479 93fc      	ST   X,R31
00147a 3201      	CPI  R16,33
00147b f410      	BRSH _0x20200CC
00147c e0e4      	LDI  R30,LOW(4)
00147d c001      	RJMP _0x20200CD
                 _0x20200CC:
00147e e0e0      	LDI  R30,LOW(0)
                 _0x20200CD:
00147f 2f0e      	MOV  R16,R30
001480 3020      	CPI  R18,0
001481 f411      	BRNE _0x20200CF
001482 e0e6      	LDI  R30,LOW(6)
001483 c019      	RJMP _0x20C000B
                 _0x20200CF:
001484 01da      	MOVW R26,R20
001485 91ac      	LD   R26,X
001486 3ea5      	CPI  R26,LOW(0xE5)
001487 f419      	BRNE _0x20200D0
001488 01da      	MOVW R26,R20
001489 e0e5      	LDI  R30,LOW(5)
00148a 93ec      	ST   X,R30
                 _0x20200D0:
00148b 85aa      	LDD  R26,Y+10
00148c 30a8      	CPI  R26,LOW(0x8)
00148d f411      	BRNE _0x20200D1
00148e 0f11      	LSL  R17
00148f 0f11      	LSL  R17
                 _0x20200D1:
001490 2fe1      	MOV  R30,R17
001491 70e3      	ANDI R30,LOW(0x3)
001492 30e1      	CPI  R30,LOW(0x1)
001493 f409      	BRNE _0x20200D2
001494 6100      	ORI  R16,LOW(16)
                 _0x20200D2:
001495 2fe1      	MOV  R30,R17
001496 70ec      	ANDI R30,LOW(0xC)
001497 30e4      	CPI  R30,LOW(0x4)
001498 f409      	BRNE _0x20200D3
001499 6008      	ORI  R16,LOW(8)
                 _0x20200D3:
00149a 01fa      	MOVW R30,R20
                +
00149b 8703     +STD Z + 11 , R16
                 	__PUTBZR 16,11
                 _0x20C000C:
00149c e0e0      	LDI  R30,LOW(0)
                 _0x20C000B:
00149d 940e 217b 	CALL __LOADLOCR6
00149f 962f      	ADIW R28,15
0014a0 9508      	RET
                 ; .FEND
                 _get_fileinfo_G101:
                 ; .FSTART _get_fileinfo_G101
0014a1 93ba      	ST   -Y,R27
0014a2 93aa      	ST   -Y,R26
0014a3 9722      	SBIW R28,2
0014a4 940e 2174 	CALL __SAVELOCR6
0014a6 85e8      	LDD  R30,Y+8
0014a7 85f9      	LDD  R31,Y+8+1
0014a8 9639      	ADIW R30,9
0014a9 83ee      	STD  Y+6,R30
0014aa 83ff      	STD  Y+6+1,R31
0014ab 85aa      	LDD  R26,Y+10
0014ac 85bb      	LDD  R27,Y+10+1
0014ad 961e      	ADIW R26,14
0014ae 940e 2120 	CALL __GETD1P
0014b0 940e 2160 	CALL __CPD10
0014b2 f409      	BRNE PC+2
0014b3 c076      	RJMP _0x20200D4
0014b4 85aa      	LDD  R26,Y+10
0014b5 85bb      	LDD  R27,Y+10+1
0014b6 9652      	ADIW R26,18
0014b7 914d      	LD   R20,X+
0014b8 915c      	LD   R21,X
0014b9 01fa      	MOVW R30,R20
0014ba 8534      	LDD  R19,Z+12
0014bb e010      	LDI  R17,LOW(0)
                 _0x20200D6:
0014bc 3018      	CPI  R17,8
0014bd f500      	BRSH _0x20200D7
0014be 01da      	MOVW R26,R20
0014bf 27ee      	CLR  R30
0014c0 0fa1      	ADD  R26,R17
0014c1 1fbe      	ADC  R27,R30
0014c2 910c      	LD   R16,X
0014c3 3200      	CPI  R16,32
0014c4 f0c9      	BREQ _0x20200D7
0014c5 3005      	CPI  R16,5
0014c6 f409      	BRNE _0x20200D9
0014c7 ee05      	LDI  R16,LOW(229)
                 _0x20200D9:
0014c8 e0e0      	LDI  R30,LOW(0)
0014c9 30e0      	CPI  R30,0
0014ca f041      	BREQ _0x20200DB
0014cb ff33      	SBRS R19,3
0014cc c006      	RJMP _0x20200DB
0014cd 3401      	CPI  R16,65
0014ce f010      	BRLO _0x20200DC
0014cf 350b      	CPI  R16,91
0014d0 f008      	BRLO _0x20200DD
                 _0x20200DC:
0014d1 c001      	RJMP _0x20200DB
                 _0x20200DD:
0014d2 c001      	RJMP _0x20200DE
                 _0x20200DB:
0014d3 c001      	RJMP _0x20200DA
                 _0x20200DE:
0014d4 5e00      	SUBI R16,-LOW(32)
                 _0x20200DA:
0014d5 81ee      	LDD  R30,Y+6
0014d6 81ff      	LDD  R31,Y+6+1
0014d7 9631      	ADIW R30,1
0014d8 83ee      	STD  Y+6,R30
0014d9 83ff      	STD  Y+6+1,R31
0014da 9731      	SBIW R30,1
0014db 8300      	ST   Z,R16
0014dc 5f1f      	SUBI R17,-1
0014dd cfde      	RJMP _0x20200D6
                 _0x20200D7:
0014de 01fa      	MOVW R30,R20
0014df 85a0      	LDD  R26,Z+8
0014e0 32a0      	CPI  R26,LOW(0x20)
0014e1 f141      	BREQ _0x20200DF
0014e2 81ae      	LDD  R26,Y+6
0014e3 81bf      	LDD  R27,Y+6+1
0014e4 9611      	ADIW R26,1
0014e5 83ae      	STD  Y+6,R26
0014e6 83bf      	STD  Y+6+1,R27
0014e7 9711      	SBIW R26,1
0014e8 e2ee      	LDI  R30,LOW(46)
0014e9 93ec      	ST   X,R30
0014ea e018      	LDI  R17,LOW(8)
                 _0x20200E1:
0014eb 301b      	CPI  R17,11
0014ec f4e8      	BRSH _0x20200E2
0014ed 01da      	MOVW R26,R20
0014ee 27ee      	CLR  R30
0014ef 0fa1      	ADD  R26,R17
0014f0 1fbe      	ADC  R27,R30
0014f1 910c      	LD   R16,X
0014f2 3200      	CPI  R16,32
0014f3 f0b1      	BREQ _0x20200E2
0014f4 e0e0      	LDI  R30,LOW(0)
0014f5 30e0      	CPI  R30,0
0014f6 f041      	BREQ _0x20200E5
0014f7 ff34      	SBRS R19,4
0014f8 c006      	RJMP _0x20200E5
0014f9 3401      	CPI  R16,65
0014fa f010      	BRLO _0x20200E6
0014fb 350b      	CPI  R16,91
0014fc f008      	BRLO _0x20200E7
                 _0x20200E6:
0014fd c001      	RJMP _0x20200E5
                 _0x20200E7:
0014fe c001      	RJMP _0x20200E8
                 _0x20200E5:
0014ff c001      	RJMP _0x20200E4
                 _0x20200E8:
001500 5e00      	SUBI R16,-LOW(32)
                 _0x20200E4:
001501 81ee      	LDD  R30,Y+6
001502 81ff      	LDD  R31,Y+6+1
001503 9631      	ADIW R30,1
001504 83ee      	STD  Y+6,R30
001505 83ff      	STD  Y+6+1,R31
001506 9731      	SBIW R30,1
001507 8300      	ST   Z,R16
001508 5f1f      	SUBI R17,-1
001509 cfe1      	RJMP _0x20200E1
                 _0x20200E2:
                 _0x20200DF:
00150a 01fa      	MOVW R30,R20
00150b 85e3      	LDD  R30,Z+11
                +
00150c 85a8     +LDD R26 , Y + 8
00150d 85b9     +LDD R27 , Y + 8 + 1
00150e 9618     +ADIW R26 , 8
00150f 93ec     +ST X , R30
                 	__PUTB1SNS 8,8
001510 01da      	MOVW R26,R20
001511 965c      	ADIW R26,28
001512 940e 2120 	CALL __GETD1P
001514 85a8      	LDD  R26,Y+8
001515 85b9      	LDD  R27,Y+8+1
001516 940e 212b 	CALL __PUTDP1
001518 01da      	MOVW R26,R20
001519 9658      	ADIW R26,24
00151a 940e 211c 	CALL __GETW1P
                +
00151c 85a8     +LDD R26 , Y + 8
00151d 85b9     +LDD R27 , Y + 8 + 1
00151e 9614     +ADIW R26 , 4
00151f 93ed     +ST X + , R30
001520 93fc     +ST X , R31
                 	__PUTW1SNS 8,4
001521 01da      	MOVW R26,R20
001522 9656      	ADIW R26,22
001523 940e 211c 	CALL __GETW1P
                +
001525 85a8     +LDD R26 , Y + 8
001526 85b9     +LDD R27 , Y + 8 + 1
001527 9616     +ADIW R26 , 6
001528 93ed     +ST X + , R30
001529 93fc     +ST X , R31
                 	__PUTW1SNS 8,6
                 _0x20200D4:
00152a 81ae      	LDD  R26,Y+6
00152b 81bf      	LDD  R27,Y+6+1
00152c e0e0      	LDI  R30,LOW(0)
00152d 93ec      	ST   X,R30
00152e 940e 217b 	CALL __LOADLOCR6
001530 962c      	ADIW R28,12
001531 9508      	RET
                 ; .FEND
                 _follow_path_G101:
                 ; .FSTART _follow_path_G101
001532 93ba      	ST   -Y,R27
001533 93aa      	ST   -Y,R26
001534 940e 2176 	CALL __SAVELOCR4
                 _0x20200E9:
001536 e0e1      	LDI  R30,LOW(1)
001537 30e0      	CPI  R30,0
001538 f029      	BREQ _0x20200EC
001539 81ac      	LDD  R26,Y+4
00153a 81bd      	LDD  R27,Y+4+1
00153b 91ac      	LD   R26,X
00153c 32a0      	CPI  R26,LOW(0x20)
00153d f009      	BREQ _0x20200ED
                 _0x20200EC:
00153e c006      	RJMP _0x20200EB
                 _0x20200ED:
00153f 81ec      	LDD  R30,Y+4
001540 81fd      	LDD  R31,Y+4+1
001541 9631      	ADIW R30,1
001542 83ec      	STD  Y+4,R30
001543 83fd      	STD  Y+4+1,R31
001544 cff1      	RJMP _0x20200E9
                 _0x20200EB:
001545 81ac      	LDD  R26,Y+4
001546 81bd      	LDD  R27,Y+4+1
001547 91ac      	LD   R26,X
001548 32af      	CPI  R26,LOW(0x2F)
001549 f029      	BREQ _0x20200EF
00154a 81ac      	LDD  R26,Y+4
00154b 81bd      	LDD  R27,Y+4+1
00154c 91ac      	LD   R26,X
00154d 35ac      	CPI  R26,LOW(0x5C)
00154e f479      	BRNE _0x20200EE
                 _0x20200EF:
00154f 81ec      	LDD  R30,Y+4
001550 81fd      	LDD  R31,Y+4+1
001551 9631      	ADIW R30,1
001552 83ec      	STD  Y+4,R30
001553 83fd      	STD  Y+4+1,R31
001554 81ae      	LDD  R26,Y+6
001555 81bf      	LDD  R27,Y+6+1
001556 9616      	ADIW R26,6
                +
001557 e0e0     +LDI R30 , LOW ( 0x0 )
001558 e0f0     +LDI R31 , HIGH ( 0x0 )
001559 e060     +LDI R22 , BYTE3 ( 0x0 )
00155a e070     +LDI R23 , BYTE4 ( 0x0 )
                 	__GETD1N 0x0
00155b 940e 212b 	CALL __PUTDP1
00155d c00d      	RJMP _0x20200F1
                 _0x20200EE:
00155e 81ae      	LDD  R26,Y+6
00155f 81bf      	LDD  R27,Y+6+1
001560 940e 211c 	CALL __GETW1P
001562 9676      	ADIW R30,22
001563 01df      	MOVW R26,R30
001564 940e 2120 	CALL __GETD1P
                +
001566 81ae     +LDD R26 , Y + 6
001567 81bf     +LDD R27 , Y + 6 + 1
001568 9616     +ADIW R26 , 6
001569 940e 212b+CALL __PUTDP1
                 	__PUTD1SNS 6,6
                 _0x20200F1:
00156b 81ac      	LDD  R26,Y+4
00156c 81bd      	LDD  R27,Y+4+1
00156d 91ac      	LD   R26,X
00156e 27bb      	CLR  R27
00156f 9790      	SBIW R26,32
001570 f480      	BRSH _0x20200F2
001571 81ee      	LDD  R30,Y+6
001572 81ff      	LDD  R31,Y+6+1
001573 93fa      	ST   -Y,R31
001574 93ea      	ST   -Y,R30
001575 e0a0      	LDI  R26,LOW(0)
001576 e0b0      	LDI  R27,0
001577 db2c      	RCALL _dir_seek_G101
001578 2f1e      	MOV  R17,R30
001579 81ae      	LDD  R26,Y+6
00157a 81bf      	LDD  R27,Y+6+1
00157b 9652      	ADIW R26,18
00157c e0e0      	LDI  R30,LOW(0)
00157d e0f0      	LDI  R31,HIGH(0)
00157e 93ed      	ST   X+,R30
00157f 93fc      	ST   X,R31
001580 c04b      	RJMP _0x20200F3
                 _0x20200F2:
                 _0x20200F5:
001581 81ee      	LDD  R30,Y+6
001582 81ff      	LDD  R31,Y+6+1
001583 93fa      	ST   -Y,R31
001584 93ea      	ST   -Y,R30
001585 01de      	MOVW R26,R28
001586 9616      	ADIW R26,6
001587 de42      	RCALL _create_name_G101
001588 2f1e      	MOV  R17,R30
001589 3010      	CPI  R17,0
00158a f009      	BREQ _0x20200F7
00158b c040      	RJMP _0x20200F6
                 _0x20200F7:
00158c 81ae      	LDD  R26,Y+6
00158d 81bf      	LDD  R27,Y+6+1
00158e dd7b      	RCALL _dir_find_G101
00158f 2f1e      	MOV  R17,R30
001590 81ae      	LDD  R26,Y+6
001591 81bf      	LDD  R27,Y+6+1
001592 9654      	ADIW R26,20
001593 940e 211c 	CALL __GETW1P
001595 85e3      	LDD  R30,Z+11
001596 70e4      	ANDI R30,LOW(0x4)
001597 2f0e      	MOV  R16,R30
001598 3010      	CPI  R17,0
001599 f039      	BREQ _0x20200F8
00159a 3014      	CPI  R17,4
00159b f411      	BRNE _0x20200FA
00159c 3000      	CPI  R16,0
00159d f009      	BREQ _0x20200FB
                 _0x20200FA:
00159e c001      	RJMP _0x20200F9
                 _0x20200FB:
00159f e015      	LDI  R17,LOW(5)
                 _0x20200F9:
0015a0 c02b      	RJMP _0x20200F6
                 _0x20200F8:
0015a1 3000      	CPI  R16,0
0015a2 f549      	BRNE _0x20200F6
0015a3 81ae      	LDD  R26,Y+6
0015a4 81bf      	LDD  R27,Y+6+1
0015a5 9652      	ADIW R26,18
0015a6 912d      	LD   R18,X+
0015a7 913c      	LD   R19,X
0015a8 01f9      	MOVW R30,R18
0015a9 85e3      	LDD  R30,Z+11
0015aa 71e0      	ANDI R30,LOW(0x10)
0015ab f411      	BRNE _0x20200FD
0015ac e015      	LDI  R17,LOW(5)
0015ad c01e      	RJMP _0x20200F6
                 _0x20200FD:
0015ae 01d9      	MOVW R26,R18
0015af 9654      	ADIW R26,20
0015b0 940e 211c 	CALL __GETW1P
0015b2 2766      	CLR  R22
0015b3 2777      	CLR  R23
0015b4 940e 2092 	CALL __LSLD16
0015b6 937f      	PUSH R23
0015b7 936f      	PUSH R22
0015b8 93ff      	PUSH R31
0015b9 93ef      	PUSH R30
0015ba 01d9      	MOVW R26,R18
0015bb 965a      	ADIW R26,26
0015bc 940e 211c 	CALL __GETW1P
0015be 91af      	POP  R26
0015bf 91bf      	POP  R27
0015c0 918f      	POP  R24
0015c1 919f      	POP  R25
0015c2 2766      	CLR  R22
0015c3 2777      	CLR  R23
0015c4 940e 2055 	CALL __ORD12
                +
0015c6 81ae     +LDD R26 , Y + 6
0015c7 81bf     +LDD R27 , Y + 6 + 1
0015c8 9616     +ADIW R26 , 6
0015c9 940e 212b+CALL __PUTDP1
                 	__PUTD1SNS 6,6
0015cb cfb5      	RJMP _0x20200F5
                 _0x20200F6:
                 _0x20200F3:
0015cc 2fe1      	MOV  R30,R17
0015cd 940e 217d 	CALL __LOADLOCR4
0015cf 9628      	ADIW R28,8
0015d0 9508      	RET
                 ; .FEND
                 _check_fs_G101:
                 ; .FSTART _check_fs_G101
0015d1 940e 214e 	CALL __PUTPARD2
0015d3 81ec      	LDD  R30,Y+4
0015d4 81fd      	LDD  R31,Y+4+1
0015d5 81a1      	LDD  R26,Z+1
0015d6 93aa      	ST   -Y,R26
0015d7 81ed      	LDD  R30,Y+5
0015d8 81fe      	LDD  R31,Y+5+1
0015d9 96f2      	ADIW R30,50
0015da 93fa      	ST   -Y,R31
0015db 93ea      	ST   -Y,R30
                +
0015dc 81eb     +LDD R30 , Y + 3
0015dd 81fc     +LDD R31 , Y + 3 + 1
0015de 816d     +LDD R22 , Y + 3 + 2
0015df 817e     +LDD R23 , Y + 3 + 3
                 	__GETD1S 3
0015e0 940e 2149 	CALL __PUTPARD1
0015e2 e0a1      	LDI  R26,LOW(1)
0015e3 940e 084e 	CALL _disk_read
0015e5 30e0      	CPI  R30,0
0015e6 f011      	BREQ _0x20200FE
0015e7 e0e3      	LDI  R30,LOW(3)
0015e8 c039      	RJMP _0x20C000A
                 _0x20200FE:
0015e9 81ec      	LDD  R30,Y+4
0015ea 81fd      	LDD  R31,Y+4+1
0015eb 96f2      	ADIW R30,50
0015ec 50e2      	SUBI R30,LOW(-510)
0015ed 4ffe      	SBCI R31,HIGH(-510)
0015ee 01df      	MOVW R26,R30
0015ef 940e 211c 	CALL __GETW1P
0015f1 35e5      	CPI  R30,LOW(0xAA55)
0015f2 eaaa      	LDI  R26,HIGH(0xAA55)
0015f3 07fa      	CPC  R31,R26
0015f4 f011      	BREQ _0x20200FF
0015f5 e0e2      	LDI  R30,LOW(2)
0015f6 c02b      	RJMP _0x20C000A
                 _0x20200FF:
0015f7 81ac      	LDD  R26,Y+4
0015f8 81bd      	LDD  R27,Y+4+1
0015f9 59a8      	SUBI R26,LOW(-104)
0015fa 4fbf      	SBCI R27,HIGH(-104)
0015fb 940e 2120 	CALL __GETD1P
                +
0015fd 7fef     +ANDI R30 , LOW ( 0xFFFFFF )
0015fe 7fff     +ANDI R31 , HIGH ( 0xFFFFFF )
0015ff 7f6f     +ANDI R22 , BYTE3 ( 0xFFFFFF )
001600 7070     +ANDI R23 , BYTE4 ( 0xFFFFFF )
                 	__ANDD1N 0xFFFFFF
                +
001601 34e6     +CPI R30 , LOW ( 0x544146 )
001602 e4a1     +LDI R26 , HIGH ( 0x544146 )
001603 07fa     +CPC R31 , R26
001604 e5a4     +LDI R26 , BYTE3 ( 0x544146 )
001605 076a     +CPC R22 , R26
001606 e0a0     +LDI R26 , BYTE4 ( 0x544146 )
001607 077a     +CPC R23 , R26
                 	__CPD1N 0x544146
001608 f411      	BRNE _0x2020100
001609 e0e0      	LDI  R30,LOW(0)
00160a c017      	RJMP _0x20C000A
                 _0x2020100:
00160b 81ec      	LDD  R30,Y+4
00160c 81fd      	LDD  R31,Y+4+1
00160d 96f2      	ADIW R30,50
00160e 5aee      	SUBI R30,LOW(-82)
00160f 4fff      	SBCI R31,HIGH(-82)
001610 01df      	MOVW R26,R30
001611 940e 2120 	CALL __GETD1P
                +
001613 7fef     +ANDI R30 , LOW ( 0xFFFFFF )
001614 7fff     +ANDI R31 , HIGH ( 0xFFFFFF )
001615 7f6f     +ANDI R22 , BYTE3 ( 0xFFFFFF )
001616 7070     +ANDI R23 , BYTE4 ( 0xFFFFFF )
                 	__ANDD1N 0xFFFFFF
                +
001617 34e6     +CPI R30 , LOW ( 0x544146 )
001618 e4a1     +LDI R26 , HIGH ( 0x544146 )
001619 07fa     +CPC R31 , R26
00161a e5a4     +LDI R26 , BYTE3 ( 0x544146 )
00161b 076a     +CPC R22 , R26
00161c e0a0     +LDI R26 , BYTE4 ( 0x544146 )
00161d 077a     +CPC R23 , R26
                 	__CPD1N 0x544146
00161e f411      	BRNE _0x2020101
00161f e0e0      	LDI  R30,LOW(0)
001620 c001      	RJMP _0x20C000A
                 _0x2020101:
001621 e0e1      	LDI  R30,LOW(1)
                 _0x20C000A:
001622 9626      	ADIW R28,6
001623 9508      	RET
                 ; .FEND
                 _chk_mounted:
                 ; .FSTART _chk_mounted
001624 93aa      	ST   -Y,R26
001625 9764      	SBIW R28,20
001626 940e 2174 	CALL __SAVELOCR6
001628 8dad      	LDD  R26,Y+29
001629 8dbe      	LDD  R27,Y+29+1
00162a 940e 211c 	CALL __GETW1P
00162c 87e8      	STD  Y+8,R30
00162d 87f9      	STD  Y+8+1,R31
00162e 85a8      	LDD  R26,Y+8
00162f 85b9      	LDD  R27,Y+8+1
001630 91ec      	LD   R30,X
001631 53e0      	SUBI R30,LOW(48)
001632 2f0e      	MOV  R16,R30
001633 300a      	CPI  R16,10
001634 f420      	BRSH _0x2020103
001635 9611      	ADIW R26,1
001636 91ac      	LD   R26,X
001637 33aa      	CPI  R26,LOW(0x3A)
001638 f009      	BREQ _0x2020104
                 _0x2020103:
001639 c00a      	RJMP _0x2020102
                 _0x2020104:
00163a 85e8      	LDD  R30,Y+8
00163b 85f9      	LDD  R31,Y+8+1
00163c 9632      	ADIW R30,2
00163d 87e8      	STD  Y+8,R30
00163e 87f9      	STD  Y+8+1,R31
00163f 8dad      	LDD  R26,Y+29
001640 8dbe      	LDD  R27,Y+29+1
001641 93ed      	ST   X+,R30
001642 93fc      	ST   X,R31
001643 c002      	RJMP _0x2020105
                 _0x2020102:
001644 9100 2ed8 	LDS  R16,_Drive_G101
                 _0x2020105:
001646 3001      	CPI  R16,1
001647 f010      	BRLO _0x2020106
001648 e0eb      	LDI  R30,LOW(11)
001649 c233      	RJMP _0x20C0008
                 _0x2020106:
00164a 2fe0      	MOV  R30,R16
00164b eda4      	LDI  R26,LOW(_FatFs_G101)
00164c e2be      	LDI  R27,HIGH(_FatFs_G101)
00164d e0f0      	LDI  R31,0
00164e 0fee      	LSL  R30
00164f 1fff      	ROL  R31
001650 0fae      	ADD  R26,R30
001651 1fbf      	ADC  R27,R31
001652 940e 211c 	CALL __GETW1P
001654 83ee      	STD  Y+6,R30
001655 83ff      	STD  Y+6+1,R31
001656 8dab      	LDD  R26,Y+27
001657 8dbc      	LDD  R27,Y+27+1
001658 93ed      	ST   X+,R30
001659 93fc      	ST   X,R31
00165a 9730      	SBIW R30,0
00165b f411      	BRNE _0x2020107
00165c e0ec      	LDI  R30,LOW(12)
00165d c21f      	RJMP _0x20C0008
                 _0x2020107:
00165e 81ae      	LDD  R26,Y+6
00165f 81bf      	LDD  R27,Y+6+1
001660 91ec      	LD   R30,X
001661 30e0      	CPI  R30,0
001662 f089      	BREQ _0x2020108
001663 81ee      	LDD  R30,Y+6
001664 81ff      	LDD  R31,Y+6+1
001665 81a1      	LDD  R26,Z+1
001666 940e 0844 	CALL _disk_status
001668 2f5e      	MOV  R21,R30
001669 fd50      	SBRC R21,0
00166a c009      	RJMP _0x2020109
00166b 8dea      	LDD  R30,Y+26
00166c 30e0      	CPI  R30,0
00166d f011      	BREQ _0x202010B
00166e fd52      	SBRC R21,2
00166f c001      	RJMP _0x202010C
                 _0x202010B:
001670 c002      	RJMP _0x202010A
                 _0x202010C:
001671 e0ea      	LDI  R30,LOW(10)
001672 c20a      	RJMP _0x20C0008
                 _0x202010A:
001673 c208      	RJMP _0x20C0009
                 _0x2020109:
                 _0x2020108:
001674 81ae      	LDD  R26,Y+6
001675 81bf      	LDD  R27,Y+6+1
001676 e0e0      	LDI  R30,LOW(0)
001677 93ec      	ST   X,R30
001678 2fe0      	MOV  R30,R16
                +
001679 81ae     +LDD R26 , Y + 6
00167a 81bf     +LDD R27 , Y + 6 + 1
00167b 9611     +ADIW R26 , 1
00167c 93ec     +ST X , R30
                 	__PUTB1SNS 6,1
00167d 81ee      	LDD  R30,Y+6
00167e 81ff      	LDD  R31,Y+6+1
00167f 81a1      	LDD  R26,Z+1
001680 940e 076e 	CALL _disk_initialize
001682 2f5e      	MOV  R21,R30
001683 ff50      	SBRS R21,0
001684 c002      	RJMP _0x202010D
001685 e0e3      	LDI  R30,LOW(3)
001686 c1f6      	RJMP _0x20C0008
                 _0x202010D:
001687 8dea      	LDD  R30,Y+26
001688 30e0      	CPI  R30,0
001689 f011      	BREQ _0x202010F
00168a fd52      	SBRC R21,2
00168b c001      	RJMP _0x2020110
                 _0x202010F:
00168c c002      	RJMP _0x202010E
                 _0x2020110:
00168d e0ea      	LDI  R30,LOW(10)
00168e c1ee      	RJMP _0x20C0008
                 _0x202010E:
00168f 81ee      	LDD  R30,Y+6
001690 81ff      	LDD  R31,Y+6+1
001691 93fa      	ST   -Y,R31
001692 93ea      	ST   -Y,R30
                +
001693 e0e0     +LDI R30 , LOW ( 0x0 )
001694 e0f0     +LDI R31 , HIGH ( 0x0 )
001695 e060     +LDI R22 , BYTE3 ( 0x0 )
001696 e070     +LDI R23 , BYTE4 ( 0x0 )
                 	__GETD1N 0x0
                +
001697 8fe8     +STD Y + 24 , R30
001698 8ff9     +STD Y + 24 + 1 , R31
001699 8f6a     +STD Y + 24 + 2 , R22
00169a 8f7b     +STD Y + 24 + 3 , R23
                 	__PUTD1S 24
00169b 01df      	MOVW R26,R30
00169c 01cb      	MOVW R24,R22
00169d df33      	RCALL _check_fs_G101
00169e 2f1e      	MOV  R17,R30
00169f 3011      	CPI  R17,1
0016a0 f4d9      	BRNE _0x2020111
0016a1 81ee      	LDD  R30,Y+6
0016a2 81ff      	LDD  R31,Y+6+1
0016a3 96f2      	ADIW R30,50
0016a4 54e2      	SUBI R30,LOW(-446)
0016a5 4ffe      	SBCI R31,HIGH(-446)
0016a6 019f      	MOVW R18,R30
0016a7 81e4      	LDD  R30,Z+4
0016a8 30e0      	CPI  R30,0
0016a9 f091      	BREQ _0x2020112
0016aa 01d9      	MOVW R26,R18
0016ab 9618      	ADIW R26,8
0016ac 940e 2120 	CALL __GETD1P
                +
0016ae 8bee     +STD Y + 22 , R30
0016af 8bff     +STD Y + 22 + 1 , R31
0016b0 8f68     +STD Y + 22 + 2 , R22
0016b1 8f79     +STD Y + 22 + 3 , R23
                 	__PUTD1S 22
0016b2 81ee      	LDD  R30,Y+6
0016b3 81ff      	LDD  R31,Y+6+1
0016b4 93fa      	ST   -Y,R31
0016b5 93ea      	ST   -Y,R30
                +
0016b6 8da8     +LDD R26 , Y + 24
0016b7 8db9     +LDD R27 , Y + 24 + 1
0016b8 8d8a     +LDD R24 , Y + 24 + 2
0016b9 8d9b     +LDD R25 , Y + 24 + 3
                 	__GETD2S 24
0016ba df16      	RCALL _check_fs_G101
0016bb 2f1e      	MOV  R17,R30
                 _0x2020112:
                 _0x2020111:
0016bc 3013      	CPI  R17,3
0016bd f411      	BRNE _0x2020113
0016be e0e1      	LDI  R30,LOW(1)
0016bf c1bd      	RJMP _0x20C0008
                 _0x2020113:
0016c0 3010      	CPI  R17,0
0016c1 f449      	BRNE _0x2020115
0016c2 81ae      	LDD  R26,Y+6
0016c3 81bf      	LDD  R27,Y+6+1
0016c4 96dd      	ADIW R26,61
0016c5 940e 211c 	CALL __GETW1P
0016c7 30e0      	CPI  R30,LOW(0x200)
0016c8 e0a2      	LDI  R26,HIGH(0x200)
0016c9 07fa      	CPC  R31,R26
0016ca f011      	BREQ _0x2020114
                 _0x2020115:
0016cb e0ed      	LDI  R30,LOW(13)
0016cc c1b0      	RJMP _0x20C0008
                 _0x2020114:
0016cd 81ae      	LDD  R26,Y+6
0016ce 81bf      	LDD  R27,Y+6+1
0016cf 5ba8      	SUBI R26,LOW(-72)
0016d0 4fbf      	SBCI R27,HIGH(-72)
0016d1 940e 211c 	CALL __GETW1P
0016d3 2766      	CLR  R22
0016d4 2777      	CLR  R23
                +
0016d5 8bea     +STD Y + 18 , R30
0016d6 8bfb     +STD Y + 18 + 1 , R31
0016d7 8b6c     +STD Y + 18 + 2 , R22
0016d8 8b7d     +STD Y + 18 + 3 , R23
                 	__PUTD1S 18
0016d9 940e 2160 	CALL __CPD10
0016db f451      	BRNE _0x2020117
0016dc 81ae      	LDD  R26,Y+6
0016dd 81bf      	LDD  R27,Y+6+1
0016de 5aaa      	SUBI R26,LOW(-86)
0016df 4fbf      	SBCI R27,HIGH(-86)
0016e0 940e 2120 	CALL __GETD1P
                +
0016e2 8bea     +STD Y + 18 , R30
0016e3 8bfb     +STD Y + 18 + 1 , R31
0016e4 8b6c     +STD Y + 18 + 2 , R22
0016e5 8b7d     +STD Y + 18 + 3 , R23
                 	__PUTD1S 18
                 _0x2020117:
                +
0016e6 89ea     +LDD R30 , Y + 18
0016e7 89fb     +LDD R31 , Y + 18 + 1
0016e8 896c     +LDD R22 , Y + 18 + 2
0016e9 897d     +LDD R23 , Y + 18 + 3
                 	__GETD1S 18
                +
0016ea 81ae     +LDD R26 , Y + 6
0016eb 81bf     +LDD R27 , Y + 6 + 1
0016ec 965a     +ADIW R26 , 26
0016ed 940e 212b+CALL __PUTDP1
                 	__PUTD1SNS 6,26
0016ef 81ee      	LDD  R30,Y+6
0016f0 81ff      	LDD  R31,Y+6+1
0016f1 5bee      	SUBI R30,LOW(-66)
0016f2 4fff      	SBCI R31,HIGH(-66)
0016f3 81e0      	LD   R30,Z
                +
0016f4 81ae     +LDD R26 , Y + 6
0016f5 81bf     +LDD R27 , Y + 6 + 1
0016f6 9613     +ADIW R26 , 3
0016f7 93ec     +ST X , R30
                 	__PUTB1SNS 6,3
0016f8 81ee      	LDD  R30,Y+6
0016f9 81ff      	LDD  R31,Y+6+1
0016fa 81e3      	LDD  R30,Z+3
0016fb e0f0      	LDI  R31,0
                +
0016fc 89aa     +LDD R26 , Y + 18
0016fd 89bb     +LDD R27 , Y + 18 + 1
0016fe 898c     +LDD R24 , Y + 18 + 2
0016ff 899d     +LDD R25 , Y + 18 + 3
                 	__GETD2S 18
001700 940e 2097 	CALL __CWD1
001702 940e 20ab 	CALL __MULD12U
                +
001704 8bea     +STD Y + 18 , R30
001705 8bfb     +STD Y + 18 + 1 , R31
001706 8b6c     +STD Y + 18 + 2 , R22
001707 8b7d     +STD Y + 18 + 3 , R23
                 	__PUTD1S 18
001708 81ae      	LDD  R26,Y+6
001709 81bf      	LDD  R27,Y+6+1
00170a 5ca0      	SUBI R26,LOW(-64)
00170b 4fbf      	SBCI R27,HIGH(-64)
00170c 940e 211c 	CALL __GETW1P
                +
00170e 89ae     +LDD R26 , Y + 22
00170f 89bf     +LDD R27 , Y + 22 + 1
001710 8d88     +LDD R24 , Y + 22 + 2
001711 8d99     +LDD R25 , Y + 22 + 3
                 	__GETD2S 22
001712 2766      	CLR  R22
001713 2777      	CLR  R23
001714 940e 203c 	CALL __ADDD12
                +
001716 81ae     +LDD R26 , Y + 6
001717 81bf     +LDD R27 , Y + 6 + 1
001718 9692     +ADIW R26 , 34
001719 940e 212b+CALL __PUTDP1
                 	__PUTD1SNS 6,34
00171b 81ee      	LDD  R30,Y+6
00171c 81ff      	LDD  R31,Y+6+1
00171d ade7      	LDD  R30,Z+63
                +
00171e 81ae     +LDD R26 , Y + 6
00171f 81bf     +LDD R27 , Y + 6 + 1
001720 9612     +ADIW R26 , 2
001721 93ec     +ST X , R30
                 	__PUTB1SNS 6,2
001722 81ae      	LDD  R26,Y+6
001723 81bf      	LDD  R27,Y+6+1
001724 5bad      	SUBI R26,LOW(-67)
001725 4fbf      	SBCI R27,HIGH(-67)
001726 940e 211c 	CALL __GETW1P
                +
001728 81ae     +LDD R26 , Y + 6
001729 81bf     +LDD R27 , Y + 6 + 1
00172a 9618     +ADIW R26 , 8
00172b 93ed     +ST X + , R30
00172c 93fc     +ST X , R31
                 	__PUTW1SNS 6,8
00172d 81ae      	LDD  R26,Y+6
00172e 81bf      	LDD  R27,Y+6+1
00172f 5bab      	SUBI R26,LOW(-69)
001730 4fbf      	SBCI R27,HIGH(-69)
001731 940e 211c 	CALL __GETW1P
001733 2766      	CLR  R22
001734 2777      	CLR  R23
                +
001735 87ee     +STD Y + 14 , R30
001736 87ff     +STD Y + 14 + 1 , R31
001737 8b68     +STD Y + 14 + 2 , R22
001738 8b79     +STD Y + 14 + 3 , R23
                 	__PUTD1S 14
001739 940e 2160 	CALL __CPD10
00173b f451      	BRNE _0x2020118
00173c 81ae      	LDD  R26,Y+6
00173d 81bf      	LDD  R27,Y+6+1
00173e 5aae      	SUBI R26,LOW(-82)
00173f 4fbf      	SBCI R27,HIGH(-82)
001740 940e 2120 	CALL __GETD1P
                +
001742 87ee     +STD Y + 14 , R30
001743 87ff     +STD Y + 14 + 1 , R31
001744 8b68     +STD Y + 14 + 2 , R22
001745 8b79     +STD Y + 14 + 3 , R23
                 	__PUTD1S 14
                 _0x2020118:
001746 81ae      	LDD  R26,Y+6
001747 81bf      	LDD  R27,Y+6+1
001748 5ca0      	SUBI R26,LOW(-64)
001749 4fbf      	SBCI R27,HIGH(-64)
00174a 940e 211c 	CALL __GETW1P
                +
00174c 85ae     +LDD R26 , Y + 14
00174d 85bf     +LDD R27 , Y + 14 + 1
00174e 8988     +LDD R24 , Y + 14 + 2
00174f 8999     +LDD R25 , Y + 14 + 3
                 	__GETD2S 14
001750 2766      	CLR  R22
001751 2777      	CLR  R23
001752 940e 2153 	CALL __SWAPD12
001754 940e 2046 	CALL __SUBD12
                +
001756 89aa     +LDD R26 , Y + 18
001757 89bb     +LDD R27 , Y + 18 + 1
001758 898c     +LDD R24 , Y + 18 + 2
001759 899d     +LDD R25 , Y + 18 + 3
                 	__GETD2S 18
00175a 940e 2046 	CALL __SUBD12
00175c 937f      	PUSH R23
00175d 936f      	PUSH R22
00175e 93ff      	PUSH R31
00175f 93ef      	PUSH R30
001760 81ee      	LDD  R30,Y+6
001761 81ff      	LDD  R31,Y+6+1
001762 85a0      	LDD  R26,Z+8
001763 85b1      	LDD  R27,Z+9
001764 01fd      	MOVW R30,R26
001765 940e 207f 	CALL __LSRW4
001767 91af      	POP  R26
001768 91bf      	POP  R27
001769 918f      	POP  R24
00176a 919f      	POP  R25
00176b 2766      	CLR  R22
00176c 2777      	CLR  R23
00176d 940e 204b 	CALL __SUBD21
00176f 81ee      	LDD  R30,Y+6
001770 81ff      	LDD  R31,Y+6+1
001771 81e2      	LDD  R30,Z+2
001772 e0f0      	LDI  R31,0
001773 940e 2097 	CALL __CWD1
001775 940e 20e9 	CALL __DIVD21U
                +
001777 5fee     +SUBI R30 , LOW ( - 2 )
001778 4fff     +SBCI R31 , HIGH ( - 2 )
001779 4f6f     +SBCI R22 , BYTE3 ( - 2 )
00177a 4f7f     +SBCI R23 , BYTE4 ( - 2 )
                 	__ADDD1N 2
                +
00177b 87ea     +STD Y + 10 , R30
00177c 87fb     +STD Y + 10 + 1 , R31
00177d 876c     +STD Y + 10 + 2 , R22
00177e 877d     +STD Y + 10 + 3 , R23
                 	__PUTD1S 10
                +
00177f 81ae     +LDD R26 , Y + 6
001780 81bf     +LDD R27 , Y + 6 + 1
001781 965e     +ADIW R26 , 30
001782 940e 212b+CALL __PUTDP1
                 	__PUTD1SNS 6,30
001784 e011      	LDI  R17,LOW(1)
                +
001785 85aa     +LDD R26 , Y + 10
001786 85bb     +LDD R27 , Y + 10 + 1
001787 858c     +LDD R24 , Y + 10 + 2
001788 859d     +LDD R25 , Y + 10 + 3
                 	__GETD2S 10
                +
001789 3fa7     +CPI R26 , LOW ( 0xFF7 )
00178a e0ef     +LDI R30 , HIGH ( 0xFF7 )
00178b 07be     +CPC R27 , R30
00178c e0e0     +LDI R30 , BYTE3 ( 0xFF7 )
00178d 078e     +CPC R24 , R30
00178e e0e0     +LDI R30 , BYTE4 ( 0xFF7 )
00178f 079e     +CPC R25 , R30
                 	__CPD2N 0xFF7
001790 f008      	BRLO _0x2020119
001791 e012      	LDI  R17,LOW(2)
                 _0x2020119:
                +
001792 85aa     +LDD R26 , Y + 10
001793 85bb     +LDD R27 , Y + 10 + 1
001794 858c     +LDD R24 , Y + 10 + 2
001795 859d     +LDD R25 , Y + 10 + 3
                 	__GETD2S 10
                +
001796 3fa7     +CPI R26 , LOW ( 0xFFF7 )
001797 efef     +LDI R30 , HIGH ( 0xFFF7 )
001798 07be     +CPC R27 , R30
001799 e0e0     +LDI R30 , BYTE3 ( 0xFFF7 )
00179a 078e     +CPC R24 , R30
00179b e0e0     +LDI R30 , BYTE4 ( 0xFFF7 )
00179c 079e     +CPC R25 , R30
                 	__CPD2N 0xFFF7
00179d f008      	BRLO _0x202011A
00179e e013      	LDI  R17,LOW(3)
                 _0x202011A:
00179f 3013      	CPI  R17,3
0017a0 f439      	BRNE _0x202011B
0017a1 81ae      	LDD  R26,Y+6
0017a2 81bf      	LDD  R27,Y+6+1
0017a3 5aa2      	SUBI R26,LOW(-94)
0017a4 4fbf      	SBCI R27,HIGH(-94)
0017a5 940e 2120 	CALL __GETD1P
0017a7 c00c      	RJMP _0x202027C
                 _0x202011B:
0017a8 81ee      	LDD  R30,Y+6
0017a9 81ff      	LDD  R31,Y+6+1
                +
0017aa a1a2     +LDD R26 , Z + 34
0017ab a1b3     +LDD R27 , Z + 34 + 1
0017ac a184     +LDD R24 , Z + 34 + 2
0017ad a195     +LDD R25 , Z + 34 + 3
                 	__GETD2Z 34
                +
0017ae 89ea     +LDD R30 , Y + 18
0017af 89fb     +LDD R31 , Y + 18 + 1
0017b0 896c     +LDD R22 , Y + 18 + 2
0017b1 897d     +LDD R23 , Y + 18 + 3
                 	__GETD1S 18
0017b2 940e 203c 	CALL __ADDD12
                 _0x202027C:
                +
0017b4 81ae     +LDD R26 , Y + 6
0017b5 81bf     +LDD R27 , Y + 6 + 1
0017b6 9696     +ADIW R26 , 38
0017b7 940e 212b+CALL __PUTDP1
                 	__PUTD1SNS 6,38
0017b9 81ee      	LDD  R30,Y+6
0017ba 81ff      	LDD  R31,Y+6+1
                +
0017bb a1a2     +LDD R26 , Z + 34
0017bc a1b3     +LDD R27 , Z + 34 + 1
0017bd a184     +LDD R24 , Z + 34 + 2
0017be a195     +LDD R25 , Z + 34 + 3
                 	__GETD2Z 34
                +
0017bf 89ea     +LDD R30 , Y + 18
0017c0 89fb     +LDD R31 , Y + 18 + 1
0017c1 896c     +LDD R22 , Y + 18 + 2
0017c2 897d     +LDD R23 , Y + 18 + 3
                 	__GETD1S 18
0017c3 940e 203c 	CALL __ADDD12
0017c5 937f      	PUSH R23
0017c6 936f      	PUSH R22
0017c7 93ff      	PUSH R31
0017c8 93ef      	PUSH R30
0017c9 81ee      	LDD  R30,Y+6
0017ca 81ff      	LDD  R31,Y+6+1
0017cb 85a0      	LDD  R26,Z+8
0017cc 85b1      	LDD  R27,Z+9
0017cd 01fd      	MOVW R30,R26
0017ce 940e 207f 	CALL __LSRW4
0017d0 91af      	POP  R26
0017d1 91bf      	POP  R27
0017d2 918f      	POP  R24
0017d3 919f      	POP  R25
0017d4 2766      	CLR  R22
0017d5 2777      	CLR  R23
0017d6 940e 203c 	CALL __ADDD12
                +
0017d8 81ae     +LDD R26 , Y + 6
0017d9 81bf     +LDD R27 , Y + 6 + 1
0017da 969a     +ADIW R26 , 42
0017db 940e 212b+CALL __PUTDP1
                 	__PUTD1SNS 6,42
0017dd 81ae      	LDD  R26,Y+6
0017de 81bf      	LDD  R27,Y+6+1
0017df 961e      	ADIW R26,14
                +
0017e0 efef     +LDI R30 , LOW ( 0xFFFFFFFF )
0017e1 efff     +LDI R31 , HIGH ( 0xFFFFFFFF )
0017e2 ef6f     +LDI R22 , BYTE3 ( 0xFFFFFFFF )
0017e3 ef7f     +LDI R23 , BYTE4 ( 0xFFFFFFFF )
                 	__GETD1N 0xFFFFFFFF
0017e4 940e 212b 	CALL __PUTDP1
0017e6 81ae      	LDD  R26,Y+6
0017e7 81bf      	LDD  R27,Y+6+1
0017e8 9614      	ADIW R26,4
0017e9 e0e0      	LDI  R30,LOW(0)
0017ea 93ec      	ST   X,R30
0017eb 3013      	CPI  R17,3
0017ec f009      	BREQ PC+2
0017ed c071      	RJMP _0x202011D
0017ee 81ae      	LDD  R26,Y+6
0017ef 81bf      	LDD  R27,Y+6+1
0017f0 9615      	ADIW R26,5
0017f1 93ec      	ST   X,R30
0017f2 81ae      	LDD  R26,Y+6
0017f3 81bf      	LDD  R27,Y+6+1
0017f4 59ae      	SUBI R26,LOW(-98)
0017f5 4fbf      	SBCI R27,HIGH(-98)
0017f6 940e 211c 	CALL __GETW1P
                +
0017f8 89ae     +LDD R26 , Y + 22
0017f9 89bf     +LDD R27 , Y + 22 + 1
0017fa 8d88     +LDD R24 , Y + 22 + 2
0017fb 8d99     +LDD R25 , Y + 22 + 3
                 	__GETD2S 22
0017fc 2766      	CLR  R22
0017fd 2777      	CLR  R23
0017fe 940e 203c 	CALL __ADDD12
                +
001800 81ae     +LDD R26 , Y + 6
001801 81bf     +LDD R27 , Y + 6 + 1
001802 9652     +ADIW R26 , 18
001803 940e 212b+CALL __PUTDP1
                 	__PUTD1SNS 6,18
001805 81ee      	LDD  R30,Y+6
001806 81ff      	LDD  R31,Y+6+1
001807 81a1      	LDD  R26,Z+1
001808 93aa      	ST   -Y,R26
001809 81ef      	LDD  R30,Y+7
00180a 85f8      	LDD  R31,Y+7+1
00180b 96f2      	ADIW R30,50
00180c 93fa      	ST   -Y,R31
00180d 93ea      	ST   -Y,R30
00180e 85e9      	LDD  R30,Y+9
00180f 85fa      	LDD  R31,Y+9+1
                +
001810 89a2     +LDD R26 , Z + 18
001811 89b3     +LDD R27 , Z + 18 + 1
001812 8984     +LDD R24 , Z + 18 + 2
001813 8995     +LDD R25 , Z + 18 + 3
                 	__GETD2Z 18
001814 940e 214e 	CALL __PUTPARD2
001816 e0a1      	LDI  R26,LOW(1)
001817 940e 084e 	CALL _disk_read
001819 30e0      	CPI  R30,0
00181a f549      	BRNE _0x202011F
00181b 81ee      	LDD  R30,Y+6
00181c 81ff      	LDD  R31,Y+6+1
00181d 96f2      	ADIW R30,50
00181e 50e2      	SUBI R30,LOW(-510)
00181f 4ffe      	SBCI R31,HIGH(-510)
001820 01df      	MOVW R26,R30
001821 940e 211c 	CALL __GETW1P
001823 35e5      	CPI  R30,LOW(0xAA55)
001824 eaaa      	LDI  R26,HIGH(0xAA55)
001825 07fa      	CPC  R31,R26
001826 f4e9      	BRNE _0x202011F
001827 81ae      	LDD  R26,Y+6
001828 81bf      	LDD  R27,Y+6+1
001829 96d2      	ADIW R26,50
00182a 940e 2120 	CALL __GETD1P
                +
00182c 35e2     +CPI R30 , LOW ( 0x41615252 )
00182d e5a2     +LDI R26 , HIGH ( 0x41615252 )
00182e 07fa     +CPC R31 , R26
00182f e6a1     +LDI R26 , BYTE3 ( 0x41615252 )
001830 076a     +CPC R22 , R26
001831 e4a1     +LDI R26 , BYTE4 ( 0x41615252 )
001832 077a     +CPC R23 , R26
                 	__CPD1N 0x41615252
001833 f481      	BRNE _0x202011F
001834 81ee      	LDD  R30,Y+6
001835 81ff      	LDD  R31,Y+6+1
001836 96f2      	ADIW R30,50
001837 51ec      	SUBI R30,LOW(-484)
001838 4ffe      	SBCI R31,HIGH(-484)
001839 01df      	MOVW R26,R30
00183a 940e 2120 	CALL __GETD1P
                +
00183c 37e2     +CPI R30 , LOW ( 0x61417272 )
00183d e7a2     +LDI R26 , HIGH ( 0x61417272 )
00183e 07fa     +CPC R31 , R26
00183f e4a1     +LDI R26 , BYTE3 ( 0x61417272 )
001840 076a     +CPC R22 , R26
001841 e6a1     +LDI R26 , BYTE4 ( 0x61417272 )
001842 077a     +CPC R23 , R26
                 	__CPD1N 0x61417272
001843 f009      	BREQ _0x2020120
                 _0x202011F:
001844 c01a      	RJMP _0x202011E
                 _0x2020120:
001845 81ee      	LDD  R30,Y+6
001846 81ff      	LDD  R31,Y+6+1
001847 96f2      	ADIW R30,50
001848 51e4      	SUBI R30,LOW(-492)
001849 4ffe      	SBCI R31,HIGH(-492)
00184a 01df      	MOVW R26,R30
00184b 940e 2120 	CALL __GETD1P
                +
00184d 81ae     +LDD R26 , Y + 6
00184e 81bf     +LDD R27 , Y + 6 + 1
00184f 961a     +ADIW R26 , 10
001850 940e 212b+CALL __PUTDP1
                 	__PUTD1SNS 6,10
001852 81ee      	LDD  R30,Y+6
001853 81ff      	LDD  R31,Y+6+1
001854 96f2      	ADIW R30,50
001855 51e8      	SUBI R30,LOW(-488)
001856 4ffe      	SBCI R31,HIGH(-488)
001857 01df      	MOVW R26,R30
001858 940e 2120 	CALL __GETD1P
                +
00185a 81ae     +LDD R26 , Y + 6
00185b 81bf     +LDD R27 , Y + 6 + 1
00185c 961e     +ADIW R26 , 14
00185d 940e 212b+CALL __PUTDP1
                 	__PUTD1SNS 6,14
                 _0x202011E:
                 _0x202011D:
00185f 81ae      	LDD  R26,Y+6
001860 81bf      	LDD  R27,Y+6+1
001861 931c      	ST   X,R17
001862 969e      	ADIW R26,46
                +
001863 e0e0     +LDI R30 , LOW ( 0x0 )
001864 e0f0     +LDI R31 , HIGH ( 0x0 )
001865 e060     +LDI R22 , BYTE3 ( 0x0 )
001866 e070     +LDI R23 , BYTE4 ( 0x0 )
                 	__GETD1N 0x0
001867 940e 212b 	CALL __PUTDP1
001869 81ae      	LDD  R26,Y+6
00186a 81bf      	LDD  R27,Y+6+1
00186b 9656      	ADIW R26,22
00186c 940e 212b 	CALL __PUTDP1
00186e 91e0 2ed6 	LDS  R30,_Fsid_G101
001870 91f0 2ed7 	LDS  R31,_Fsid_G101+1
001872 9631      	ADIW R30,1
001873 93e0 2ed6 	STS  _Fsid_G101,R30
001875 93f0 2ed7 	STS  _Fsid_G101+1,R31
                +
001877 81ae     +LDD R26 , Y + 6
001878 81bf     +LDD R27 , Y + 6 + 1
001879 9616     +ADIW R26 , 6
00187a 93ed     +ST X + , R30
00187b 93fc     +ST X , R31
                 	__PUTW1SNS 6,6
                 _0x20C0009:
00187c e0e0      	LDI  R30,LOW(0)
                 _0x20C0008:
00187d 940e 217b 	CALL __LOADLOCR6
00187f 966f      	ADIW R28,31
001880 9508      	RET
                 ; .FEND
                 _validate_G101:
                 ; .FSTART _validate_G101
001881 93ba      	ST   -Y,R27
001882 93aa      	ST   -Y,R26
001883 81ea      	LDD  R30,Y+2
001884 81fb      	LDD  R31,Y+2+1
001885 9730      	SBIW R30,0
001886 f071      	BREQ _0x2020122
001887 81aa      	LDD  R26,Y+2
001888 81bb      	LDD  R27,Y+2+1
001889 91ec      	LD   R30,X
00188a 30e0      	CPI  R30,0
00188b f049      	BREQ _0x2020122
00188c 81ea      	LDD  R30,Y+2
00188d 81fb      	LDD  R31,Y+2+1
00188e 81a6      	LDD  R26,Z+6
00188f 81b7      	LDD  R27,Z+7
001890 81e8      	LD   R30,Y
001891 81f9      	LDD  R31,Y+1
001892 17ea      	CP   R30,R26
001893 07fb      	CPC  R31,R27
001894 f011      	BREQ _0x2020121
                 _0x2020122:
001895 e0e9      	LDI  R30,LOW(9)
001896 c00a      	RJMP _0x20C0007
                 _0x2020121:
001897 81ea      	LDD  R30,Y+2
001898 81fb      	LDD  R31,Y+2+1
001899 81a1      	LDD  R26,Z+1
00189a 940e 0844 	CALL _disk_status
00189c 70e1      	ANDI R30,LOW(0x1)
00189d f011      	BREQ _0x2020124
00189e e0e3      	LDI  R30,LOW(3)
00189f c001      	RJMP _0x20C0007
                 _0x2020124:
0018a0 e0e0      	LDI  R30,LOW(0)
                 _0x20C0007:
0018a1 9624      	ADIW R28,4
0018a2 9508      	RET
                 ; .FEND
                 _f_mount:
                 ; .FSTART _f_mount
0018a3 93ba      	ST   -Y,R27
0018a4 93aa      	ST   -Y,R26
0018a5 931a      	ST   -Y,R17
0018a6 930a      	ST   -Y,R16
0018a7 81ac      	LDD  R26,Y+4
0018a8 30a1      	CPI  R26,LOW(0x1)
0018a9 f010      	BRLO _0x2020125
0018aa e0eb      	LDI  R30,LOW(11)
0018ab c025      	RJMP _0x20C0006
                 _0x2020125:
0018ac 81ec      	LDD  R30,Y+4
0018ad eda4      	LDI  R26,LOW(_FatFs_G101)
0018ae e2be      	LDI  R27,HIGH(_FatFs_G101)
0018af e0f0      	LDI  R31,0
0018b0 0fee      	LSL  R30
0018b1 1fff      	ROL  R31
0018b2 0fae      	ADD  R26,R30
0018b3 1fbf      	ADC  R27,R31
0018b4 910d      	LD   R16,X+
0018b5 911c      	LD   R17,X
0018b6 2e00      	MOV  R0,R16
0018b7 2a01      	OR   R0,R17
0018b8 f019      	BREQ _0x2020126
0018b9 01d8      	MOVW R26,R16
0018ba e0e0      	LDI  R30,LOW(0)
0018bb 93ec      	ST   X,R30
                 _0x2020126:
0018bc 81ea      	LDD  R30,Y+2
0018bd 81fb      	LDD  R31,Y+2+1
0018be 9730      	SBIW R30,0
0018bf f021      	BREQ _0x2020127
0018c0 81aa      	LDD  R26,Y+2
0018c1 81bb      	LDD  R27,Y+2+1
0018c2 e0e0      	LDI  R30,LOW(0)
0018c3 93ec      	ST   X,R30
                 _0x2020127:
0018c4 81ec      	LDD  R30,Y+4
0018c5 eda4      	LDI  R26,LOW(_FatFs_G101)
0018c6 e2be      	LDI  R27,HIGH(_FatFs_G101)
0018c7 e0f0      	LDI  R31,0
0018c8 0fee      	LSL  R30
0018c9 1fff      	ROL  R31
0018ca 0fea      	ADD  R30,R26
0018cb 1ffb      	ADC  R31,R27
0018cc 81aa      	LDD  R26,Y+2
0018cd 81bb      	LDD  R27,Y+2+1
0018ce 83a0      	STD  Z+0,R26
0018cf 83b1      	STD  Z+1,R27
0018d0 e0e0      	LDI  R30,LOW(0)
                 _0x20C0006:
0018d1 8119      	LDD  R17,Y+1
0018d2 8108      	LDD  R16,Y+0
0018d3 9625      	ADIW R28,5
0018d4 9508      	RET
                 ; .FEND
                 _f_open:
                 ; .FSTART _f_open
0018d5 93aa      	ST   -Y,R26
0018d6 97a2      	SBIW R28,34
0018d7 940e 2176 	CALL __SAVELOCR4
0018d9 a5a9      	LDD  R26,Y+41
0018da a5ba      	LDD  R27,Y+41+1
0018db e0e0      	LDI  R30,LOW(0)
0018dc e0f0      	LDI  R31,HIGH(0)
0018dd 93ed      	ST   X+,R30
0018de 93fc      	ST   X,R31
0018df a1ee      	LDD  R30,Y+38
0018e0 71ef      	ANDI R30,LOW(0x1F)
0018e1 a3ee      	STD  Y+38,R30
0018e2 01fe      	MOVW R30,R28
0018e3 96b7      	ADIW R30,39
0018e4 93fa      	ST   -Y,R31
0018e5 93ea      	ST   -Y,R30
0018e6 01fe      	MOVW R30,R28
0018e7 9672      	ADIW R30,18
0018e8 93fa      	ST   -Y,R31
0018e9 93ea      	ST   -Y,R30
0018ea a5ea      	LDD  R30,Y+42
0018eb 71ee      	ANDI R30,LOW(0x1E)
0018ec 2fae      	MOV  R26,R30
0018ed dd36      	RCALL _chk_mounted
0018ee 2f1e      	MOV  R17,R30
0018ef 3010      	CPI  R17,0
0018f0 f009      	BREQ _0x2020128
0018f1 c13a      	RJMP _0x20C0005
                 _0x2020128:
0018f2 01fe      	MOVW R30,R28
0018f3 9634      	ADIW R30,4
0018f4 a3ec      	STD  Y+36,R30
0018f5 a3fd      	STD  Y+36+1,R31
0018f6 01fe      	MOVW R30,R28
0018f7 9670      	ADIW R30,16
0018f8 93fa      	ST   -Y,R31
0018f9 93ea      	ST   -Y,R30
0018fa a5a9      	LDD  R26,Y+41
0018fb a5ba      	LDD  R27,Y+41+1
0018fc dc35      	RCALL _follow_path_G101
0018fd 2f1e      	MOV  R17,R30
0018fe a1ee      	LDD  R30,Y+38
0018ff 71ec      	ANDI R30,LOW(0x1C)
001900 f409      	BRNE PC+2
001901 c0ad      	RJMP _0x2020129
001902 9728      	SBIW R28,8
001903 3010      	CPI  R17,0
001904 f089      	BREQ _0x202012A
001905 3014      	CPI  R17,4
001906 f421      	BRNE _0x202012B
001907 01de      	MOVW R26,R28
001908 9658      	ADIW R26,24
001909 da4d      	RCALL _dir_register_G101
00190a 2f1e      	MOV  R17,R30
                 _0x202012B:
00190b 3010      	CPI  R17,0
00190c f019      	BREQ _0x202012C
00190d 2fe1      	MOV  R30,R17
00190e 9628      	ADIW R28,8
00190f c11c      	RJMP _0x20C0005
                 _0x202012C:
001910 a5ee      	LDD  R30,Y+46
001911 60e8      	ORI  R30,8
001912 a7ee      	STD  Y+46,R30
                +
001913 a52a     +LDD R18 , Y + 42
001914 a53b     +LDD R19 , Y + 42 + 1
                 	__GETWRS 18,19,42
001915 c07e      	RJMP _0x202012D
                 _0x202012A:
001916 a5ee      	LDD  R30,Y+46
001917 70e4      	ANDI R30,LOW(0x4)
001918 f019      	BREQ _0x202012E
001919 e0e8      	LDI  R30,LOW(8)
00191a 9628      	ADIW R28,8
00191b c110      	RJMP _0x20C0005
                 _0x202012E:
                +
00191c a52a     +LDD R18 , Y + 42
00191d a53b     +LDD R19 , Y + 42 + 1
                 	__GETWRS 18,19,42
00191e 2e02      	MOV  R0,R18
00191f 2a03      	OR   R0,R19
001920 f021      	BREQ _0x2020130
001921 01f9      	MOVW R30,R18
001922 85e3      	LDD  R30,Z+11
001923 71e1      	ANDI R30,LOW(0x11)
001924 f019      	BREQ _0x202012F
                 _0x2020130:
001925 e0e7      	LDI  R30,LOW(7)
001926 9628      	ADIW R28,8
001927 c104      	RJMP _0x20C0005
                 _0x202012F:
001928 a5ee      	LDD  R30,Y+46
001929 70e8      	ANDI R30,LOW(0x8)
00192a f409      	BRNE PC+2
00192b c068      	RJMP _0x2020132
00192c 01d9      	MOVW R26,R18
00192d 9654      	ADIW R26,20
00192e 940e 211c 	CALL __GETW1P
001930 2766      	CLR  R22
001931 2777      	CLR  R23
001932 940e 2092 	CALL __LSLD16
001934 937f      	PUSH R23
001935 936f      	PUSH R22
001936 93ff      	PUSH R31
001937 93ef      	PUSH R30
001938 01d9      	MOVW R26,R18
001939 965a      	ADIW R26,26
00193a 940e 211c 	CALL __GETW1P
00193c 91af      	POP  R26
00193d 91bf      	POP  R27
00193e 918f      	POP  R24
00193f 919f      	POP  R25
001940 2766      	CLR  R22
001941 2777      	CLR  R23
001942 940e 2055 	CALL __ORD12
001944 940e 213f 	CALL __PUTD1S0
001946 01f9      	MOVW R30,R18
001947 9674      	ADIW R30,20
001948 e0a0      	LDI  R26,LOW(0)
001949 e0b0      	LDI  R27,HIGH(0)
00194a 83a0      	STD  Z+0,R26
00194b 83b1      	STD  Z+1,R27
00194c 01f9      	MOVW R30,R18
00194d 967a      	ADIW R30,26
00194e 83a0      	STD  Z+0,R26
00194f 83b1      	STD  Z+1,R27
001950 01f9      	MOVW R30,R18
001951 967c      	ADIW R30,28
                +
001952 e0a0     +LDI R26 , LOW ( 0x0 )
001953 e0b0     +LDI R27 , HIGH ( 0x0 )
001954 e080     +LDI R24 , BYTE3 ( 0x0 )
001955 e090     +LDI R25 , BYTE4 ( 0x0 )
                 	__GETD2N 0x0
001956 940e 2144 	CALL __PUTDZ20
001958 8da8      	LDD  R26,Y+24
001959 8db9      	LDD  R27,Y+24+1
00195a 9614      	ADIW R26,4
00195b e0e1      	LDI  R30,LOW(1)
00195c 93ec      	ST   X,R30
00195d 8da8      	LDD  R26,Y+24
00195e 8db9      	LDD  R27,Y+24+1
00195f 969e      	ADIW R26,46
001960 940e 2120 	CALL __GETD1P
                +
001962 83ec     +STD Y + 4 , R30
001963 83fd     +STD Y + 4 + 1 , R31
001964 836e     +STD Y + 4 + 2 , R22
001965 837f     +STD Y + 4 + 3 , R23
                 	__PUTD1S 4
001966 940e 2135 	CALL __GETD1S0
001968 940e 2160 	CALL __CPD10
00196a f0d1      	BREQ _0x2020133
00196b 8de8      	LDD  R30,Y+24
00196c 8df9      	LDD  R31,Y+24+1
00196d 93fa      	ST   -Y,R31
00196e 93ea      	ST   -Y,R30
                +
00196f 81aa     +LDD R26 , Y + 2
001970 81bb     +LDD R27 , Y + 2 + 1
001971 818c     +LDD R24 , Y + 2 + 2
001972 819d     +LDD R25 , Y + 2 + 3
                 	__GETD2S 2
001973 940e 0ea2 	CALL _remove_chain_G101
001975 2f1e      	MOV  R17,R30
001976 3010      	CPI  R17,0
001977 f011      	BREQ _0x2020134
001978 9628      	ADIW R28,8
001979 c0b2      	RJMP _0x20C0005
                 _0x2020134:
00197a 940e 2135 	CALL __GETD1S0
                +
00197c 50e1     +SUBI R30 , LOW ( 1 )
00197d 40f0     +SBCI R31 , HIGH ( 1 )
00197e 4060     +SBCI R22 , BYTE3 ( 1 )
00197f 4070     +SBCI R23 , BYTE4 ( 1 )
                 	__SUBD1N 1
                +
001980 8da8     +LDD R26 , Y + 24
001981 8db9     +LDD R27 , Y + 24 + 1
001982 961a     +ADIW R26 , 10
001983 940e 212b+CALL __PUTDP1
                 	__PUTD1SNS 24,10
                 _0x2020133:
001985 8de8      	LDD  R30,Y+24
001986 8df9      	LDD  R31,Y+24+1
001987 93fa      	ST   -Y,R31
001988 93ea      	ST   -Y,R30
                +
001989 81ae     +LDD R26 , Y + 6
00198a 81bf     +LDD R27 , Y + 6 + 1
00198b 8588     +LDD R24 , Y + 6 + 2
00198c 8599     +LDD R25 , Y + 6 + 3
                 	__GETD2S 6
00198d 940e 0b79 	CALL _move_window_G101
00198f 2f1e      	MOV  R17,R30
001990 3010      	CPI  R17,0
001991 f011      	BREQ _0x2020135
001992 9628      	ADIW R28,8
001993 c098      	RJMP _0x20C0005
                 _0x2020135:
                 _0x2020132:
                 _0x202012D:
001994 a5ee      	LDD  R30,Y+46
001995 70e8      	ANDI R30,LOW(0x8)
001996 f0b1      	BREQ _0x2020136
001997 01f9      	MOVW R30,R18
001998 963b      	ADIW R30,11
001999 e0a0      	LDI  R26,LOW(0)
00199a 83a0      	STD  Z+0,R26
00199b 940e 0ad8 	CALL _get_fattime
                +
00199d 83ec     +STD Y + 4 , R30
00199e 83fd     +STD Y + 4 + 1 , R31
00199f 836e     +STD Y + 4 + 2 , R22
0019a0 837f     +STD Y + 4 + 3 , R23
                 	__PUTD1S 4
                +
0019a1 01d9     +MOVW R26 , R18
0019a2 961e     +ADIW R26 , 14
0019a3 940e 212b+CALL __PUTDP1
                 	__PUTD1RNS 18,14
0019a5 8da8      	LDD  R26,Y+24
0019a6 8db9      	LDD  R27,Y+24+1
0019a7 9614      	ADIW R26,4
0019a8 e0e1      	LDI  R30,LOW(1)
0019a9 93ec      	ST   X,R30
0019aa a5ee      	LDD  R30,Y+46
0019ab 62e0      	ORI  R30,0x20
0019ac a7ee      	STD  Y+46,R30
                 _0x2020136:
0019ad 9628      	ADIW R28,8
0019ae c019      	RJMP _0x2020137
                 _0x2020129:
0019af 3010      	CPI  R17,0
0019b0 f011      	BREQ _0x2020138
0019b1 2fe1      	MOV  R30,R17
0019b2 c079      	RJMP _0x20C0005
                 _0x2020138:
                +
0019b3 a12a     +LDD R18 , Y + 34
0019b4 a13b     +LDD R19 , Y + 34 + 1
                 	__GETWRS 18,19,34
0019b5 2e02      	MOV  R0,R18
0019b6 2a03      	OR   R0,R19
0019b7 f021      	BREQ _0x202013A
0019b8 01f9      	MOVW R30,R18
0019b9 85e3      	LDD  R30,Z+11
0019ba 71e0      	ANDI R30,LOW(0x10)
0019bb f011      	BREQ _0x2020139
                 _0x202013A:
0019bc e0e4      	LDI  R30,LOW(4)
0019bd c06e      	RJMP _0x20C0005
                 _0x2020139:
0019be a1ee      	LDD  R30,Y+38
0019bf 70e2      	ANDI R30,LOW(0x2)
0019c0 f021      	BREQ _0x202013D
0019c1 01f9      	MOVW R30,R18
0019c2 85e3      	LDD  R30,Z+11
0019c3 70e1      	ANDI R30,LOW(0x1)
0019c4 f409      	BRNE _0x202013E
                 _0x202013D:
0019c5 c002      	RJMP _0x202013C
                 _0x202013E:
0019c6 e0e7      	LDI  R30,LOW(7)
0019c7 c064      	RJMP _0x20C0005
                 _0x202013C:
                 _0x2020137:
0019c8 89a8      	LDD  R26,Y+16
0019c9 89b9      	LDD  R27,Y+16+1
0019ca 969e      	ADIW R26,46
0019cb 940e 2120 	CALL __GETD1P
                +
0019cd a5a9     +LDD R26 , Y + 41
0019ce a5ba     +LDD R27 , Y + 41 + 1
0019cf 965a     +ADIW R26 , 26
0019d0 940e 212b+CALL __PUTDP1
                 	__PUTD1SNS 41,26
0019d2 a1ea      	LDD  R30,Y+34
0019d3 a1fb      	LDD  R31,Y+34+1
                +
0019d4 a5a9     +LDD R26 , Y + 41
0019d5 a5ba     +LDD R27 , Y + 41 + 1
0019d6 965e     +ADIW R26 , 30
0019d7 93ed     +ST X + , R30
0019d8 93fc     +ST X , R31
                 	__PUTW1SNS 41,30
0019d9 a1ee      	LDD  R30,Y+38
                +
0019da a5a9     +LDD R26 , Y + 41
0019db a5ba     +LDD R27 , Y + 41 + 1
0019dc 9614     +ADIW R26 , 4
0019dd 93ec     +ST X , R30
                 	__PUTB1SNS 41,4
0019de 01d9      	MOVW R26,R18
0019df 9654      	ADIW R26,20
0019e0 940e 211c 	CALL __GETW1P
0019e2 2766      	CLR  R22
0019e3 2777      	CLR  R23
0019e4 940e 2092 	CALL __LSLD16
0019e6 937f      	PUSH R23
0019e7 936f      	PUSH R22
0019e8 93ff      	PUSH R31
0019e9 93ef      	PUSH R30
0019ea 01d9      	MOVW R26,R18
0019eb 965a      	ADIW R26,26
0019ec 940e 211c 	CALL __GETW1P
0019ee 91af      	POP  R26
0019ef 91bf      	POP  R27
0019f0 918f      	POP  R24
0019f1 919f      	POP  R25
0019f2 2766      	CLR  R22
0019f3 2777      	CLR  R23
0019f4 940e 2055 	CALL __ORD12
                +
0019f6 a5a9     +LDD R26 , Y + 41
0019f7 a5ba     +LDD R27 , Y + 41 + 1
0019f8 961e     +ADIW R26 , 14
0019f9 940e 212b+CALL __PUTDP1
                 	__PUTD1SNS 41,14
0019fb 01d9      	MOVW R26,R18
0019fc 965c      	ADIW R26,28
0019fd 940e 2120 	CALL __GETD1P
                +
0019ff a5a9     +LDD R26 , Y + 41
001a00 a5ba     +LDD R27 , Y + 41 + 1
001a01 961a     +ADIW R26 , 10
001a02 940e 212b+CALL __PUTDP1
                 	__PUTD1SNS 41,10
001a04 a5a9      	LDD  R26,Y+41
001a05 a5ba      	LDD  R27,Y+41+1
001a06 9616      	ADIW R26,6
                +
001a07 e0e0     +LDI R30 , LOW ( 0x0 )
001a08 e0f0     +LDI R31 , HIGH ( 0x0 )
001a09 e060     +LDI R22 , BYTE3 ( 0x0 )
001a0a e070     +LDI R23 , BYTE4 ( 0x0 )
                 	__GETD1N 0x0
001a0b 940e 212b 	CALL __PUTDP1
001a0d a5a9      	LDD  R26,Y+41
001a0e a5ba      	LDD  R27,Y+41+1
001a0f 9615      	ADIW R26,5
001a10 efef      	LDI  R30,LOW(255)
001a11 93ec      	ST   X,R30
001a12 a5a9      	LDD  R26,Y+41
001a13 a5ba      	LDD  R27,Y+41+1
001a14 9656      	ADIW R26,22
                +
001a15 e0e0     +LDI R30 , LOW ( 0x0 )
001a16 e0f0     +LDI R31 , HIGH ( 0x0 )
001a17 e060     +LDI R22 , BYTE3 ( 0x0 )
001a18 e070     +LDI R23 , BYTE4 ( 0x0 )
                 	__GETD1N 0x0
001a19 940e 212b 	CALL __PUTDP1
001a1b 89e8      	LDD  R30,Y+16
001a1c 89f9      	LDD  R31,Y+16+1
001a1d a5a9      	LDD  R26,Y+41
001a1e a5ba      	LDD  R27,Y+41+1
001a1f 93ed      	ST   X+,R30
001a20 93fc      	ST   X,R31
001a21 89a8      	LDD  R26,Y+16
001a22 89b9      	LDD  R27,Y+16+1
001a23 9616      	ADIW R26,6
001a24 940e 211c 	CALL __GETW1P
                +
001a26 a5a9     +LDD R26 , Y + 41
001a27 a5ba     +LDD R27 , Y + 41 + 1
001a28 9612     +ADIW R26 , 2
001a29 93ed     +ST X + , R30
001a2a 93fc     +ST X , R31
                 	__PUTW1SNS 41,2
001a2b e0e0      	LDI  R30,LOW(0)
                 _0x20C0005:
001a2c 940e 217d 	CALL __LOADLOCR4
001a2e 96ab      	ADIW R28,43
001a2f 9508      	RET
                 ; .FEND
                 _f_read:
                 ; .FSTART _f_read
001a30 93ba      	ST   -Y,R27
001a31 93aa      	ST   -Y,R26
001a32 972e      	SBIW R28,14
001a33 940e 2174 	CALL __SAVELOCR6
001a35 8de8      	LDD  R30,Y+24
001a36 8df9      	LDD  R31,Y+24+1
001a37 83ee      	STD  Y+6,R30
001a38 83ff      	STD  Y+6+1,R31
001a39 89ac      	LDD  R26,Y+20
001a3a 89bd      	LDD  R27,Y+20+1
001a3b e0e0      	LDI  R30,LOW(0)
001a3c e0f0      	LDI  R31,HIGH(0)
001a3d 93ed      	ST   X+,R30
001a3e 93fc      	ST   X,R31
001a3f 8daa      	LDD  R26,Y+26
001a40 8dbb      	LDD  R27,Y+26+1
001a41 940e 211c 	CALL __GETW1P
001a43 93fa      	ST   -Y,R31
001a44 93ea      	ST   -Y,R30
001a45 8dec      	LDD  R30,Y+28
001a46 8dfd      	LDD  R31,Y+28+1
001a47 81a2      	LDD  R26,Z+2
001a48 81b3      	LDD  R27,Z+3
001a49 de37      	RCALL _validate_G101
001a4a 2f1e      	MOV  R17,R30
001a4b 3010      	CPI  R17,0
001a4c f009      	BREQ _0x202013F
001a4d c211      	RJMP _0x20C0004
                 _0x202013F:
001a4e 8dea      	LDD  R30,Y+26
001a4f 8dfb      	LDD  R31,Y+26+1
001a50 81a4      	LDD  R26,Z+4
001a51 78a0      	ANDI R26,LOW(0x80)
001a52 f011      	BREQ _0x2020140
001a53 e0e2      	LDI  R30,LOW(2)
001a54 c20a      	RJMP _0x20C0004
                 _0x2020140:
001a55 8dea      	LDD  R30,Y+26
001a56 8dfb      	LDD  R31,Y+26+1
001a57 81a4      	LDD  R26,Z+4
001a58 70a1      	ANDI R26,LOW(0x1)
001a59 f411      	BRNE _0x2020141
001a5a e0e7      	LDI  R30,LOW(7)
001a5b c203      	RJMP _0x20C0004
                 _0x2020141:
001a5c 8dea      	LDD  R30,Y+26
001a5d 8dfb      	LDD  R31,Y+26+1
                +
001a5e 85a2     +LDD R26 , Z + 10
001a5f 85b3     +LDD R27 , Z + 10 + 1
001a60 8584     +LDD R24 , Z + 10 + 2
001a61 8595     +LDD R25 , Z + 10 + 3
                 	__GETD2Z 10
001a62 939f      	PUSH R25
001a63 938f      	PUSH R24
001a64 93bf      	PUSH R27
001a65 93af      	PUSH R26
                +
001a66 81a6     +LDD R26 , Z + 6
001a67 81b7     +LDD R27 , Z + 6 + 1
001a68 8580     +LDD R24 , Z + 6 + 2
001a69 8591     +LDD R25 , Z + 6 + 3
                 	__GETD2Z 6
001a6a 91ef      	POP  R30
001a6b 91ff      	POP  R31
001a6c 916f      	POP  R22
001a6d 917f      	POP  R23
001a6e 940e 2046 	CALL __SUBD12
                +
001a70 87e8     +STD Y + 8 , R30
001a71 87f9     +STD Y + 8 + 1 , R31
001a72 876a     +STD Y + 8 + 2 , R22
001a73 877b     +STD Y + 8 + 3 , R23
                 	__PUTD1S 8
001a74 89ae      	LDD  R26,Y+22
001a75 89bf      	LDD  R27,Y+22+1
001a76 2788      	CLR  R24
001a77 2799      	CLR  R25
001a78 940e 216a 	CALL __CPD12
001a7a f420      	BRSH _0x2020142
001a7b 85e8      	LDD  R30,Y+8
001a7c 85f9      	LDD  R31,Y+8+1
001a7d 8bee      	STD  Y+22,R30
001a7e 8bff      	STD  Y+22+1,R31
                 _0x2020142:
                 _0x2020144:
001a7f 89ee      	LDD  R30,Y+22
001a80 89ff      	LDD  R31,Y+22+1
001a81 9730      	SBIW R30,0
001a82 f409      	BRNE PC+2
001a83 c1da      	RJMP _0x2020145
001a84 8dea      	LDD  R30,Y+26
001a85 8dfb      	LDD  R31,Y+26+1
                +
001a86 81a6     +LDD R26 , Z + 6
001a87 81b7     +LDD R27 , Z + 6 + 1
001a88 8580     +LDD R24 , Z + 6 + 2
001a89 8591     +LDD R25 , Z + 6 + 3
                 	__GETD2Z 6
001a8a 01fd      	MOVW R30,R26
001a8b 01bc      	MOVW R22,R24
001a8c 70f1      	ANDI R31,HIGH(0x1FF)
001a8d 9730      	SBIW R30,0
001a8e f009      	BREQ PC+2
001a8f c181      	RJMP _0x2020146
001a90 8dea      	LDD  R30,Y+26
001a91 8dfb      	LDD  R31,Y+26+1
001a92 8005      	LDD  R0,Z+5
001a93 8daa      	LDD  R26,Y+26
001a94 8dbb      	LDD  R27,Y+26+1
001a95 940e 211c 	CALL __GETW1P
001a97 81e2      	LDD  R30,Z+2
001a98 160e      	CP   R0,R30
001a99 f408      	BRSH PC+2
001a9a c057      	RJMP _0x2020147
001a9b 8dea      	LDD  R30,Y+26
001a9c 8dfb      	LDD  R31,Y+26+1
                +
001a9d 81a6     +LDD R26 , Z + 6
001a9e 81b7     +LDD R27 , Z + 6 + 1
001a9f 8580     +LDD R24 , Z + 6 + 2
001aa0 8591     +LDD R25 , Z + 6 + 3
                 	__GETD2Z 6
001aa1 940e 2164 	CALL __CPD02
001aa3 f431      	BRNE _0x2020148
001aa4 8daa      	LDD  R26,Y+26
001aa5 8dbb      	LDD  R27,Y+26+1
001aa6 961e      	ADIW R26,14
001aa7 940e 2120 	CALL __GETD1P
001aa9 c00e      	RJMP _0x2020149
                 _0x2020148:
001aaa 8daa      	LDD  R26,Y+26
001aab 8dbb      	LDD  R27,Y+26+1
001aac 940e 211c 	CALL __GETW1P
001aae 93fa      	ST   -Y,R31
001aaf 93ea      	ST   -Y,R30
001ab0 8dec      	LDD  R30,Y+28
001ab1 8dfd      	LDD  R31,Y+28+1
                +
001ab2 89a2     +LDD R26 , Z + 18
001ab3 89b3     +LDD R27 , Z + 18 + 1
001ab4 8984     +LDD R24 , Z + 18 + 2
001ab5 8995     +LDD R25 , Z + 18 + 3
                 	__GETD2Z 18
001ab6 940e 0ca8 	CALL _get_fat
                 _0x2020149:
                +
001ab8 8be8     +STD Y + 16 , R30
001ab9 8bf9     +STD Y + 16 + 1 , R31
001aba 8b6a     +STD Y + 16 + 2 , R22
001abb 8b7b     +STD Y + 16 + 3 , R23
                 	__PUTD1S 16
                +
001abc 89a8     +LDD R26 , Y + 16
001abd 89b9     +LDD R27 , Y + 16 + 1
001abe 898a     +LDD R24 , Y + 16 + 2
001abf 899b     +LDD R25 , Y + 16 + 3
                 	__GETD2S 16
                +
001ac0 30a2     +CPI R26 , LOW ( 0x2 )
001ac1 e0e0     +LDI R30 , HIGH ( 0x2 )
001ac2 07be     +CPC R27 , R30
001ac3 e0e0     +LDI R30 , BYTE3 ( 0x2 )
001ac4 078e     +CPC R24 , R30
001ac5 e0e0     +LDI R30 , BYTE4 ( 0x2 )
001ac6 079e     +CPC R25 , R30
                 	__CPD2N 0x2
001ac7 f440      	BRSH _0x202014B
001ac8 8daa      	LDD  R26,Y+26
001ac9 8dbb      	LDD  R27,Y+26+1
001aca 9614      	ADIW R26,4
001acb 91ec      	LD   R30,X
001acc 68e0      	ORI  R30,0x80
001acd 93ec      	ST   X,R30
001ace e0e2      	LDI  R30,LOW(2)
001acf c18f      	RJMP _0x20C0004
                 _0x202014B:
                +
001ad0 89a8     +LDD R26 , Y + 16
001ad1 89b9     +LDD R27 , Y + 16 + 1
001ad2 898a     +LDD R24 , Y + 16 + 2
001ad3 899b     +LDD R25 , Y + 16 + 3
                 	__GETD2S 16
                +
001ad4 3faf     +CPI R26 , LOW ( 0xFFFFFFFF )
001ad5 efef     +LDI R30 , HIGH ( 0xFFFFFFFF )
001ad6 07be     +CPC R27 , R30
001ad7 efef     +LDI R30 , BYTE3 ( 0xFFFFFFFF )
001ad8 078e     +CPC R24 , R30
001ad9 efef     +LDI R30 , BYTE4 ( 0xFFFFFFFF )
001ada 079e     +CPC R25 , R30
                 	__CPD2N 0xFFFFFFFF
001adb f441      	BRNE _0x202014C
001adc 8daa      	LDD  R26,Y+26
001add 8dbb      	LDD  R27,Y+26+1
001ade 9614      	ADIW R26,4
001adf 91ec      	LD   R30,X
001ae0 68e0      	ORI  R30,0x80
001ae1 93ec      	ST   X,R30
001ae2 e0e1      	LDI  R30,LOW(1)
001ae3 c17b      	RJMP _0x20C0004
                 _0x202014C:
                +
001ae4 89e8     +LDD R30 , Y + 16
001ae5 89f9     +LDD R31 , Y + 16 + 1
001ae6 896a     +LDD R22 , Y + 16 + 2
001ae7 897b     +LDD R23 , Y + 16 + 3
                 	__GETD1S 16
                +
001ae8 8daa     +LDD R26 , Y + 26
001ae9 8dbb     +LDD R27 , Y + 26 + 1
001aea 9652     +ADIW R26 , 18
001aeb 940e 212b+CALL __PUTDP1
                 	__PUTD1SNS 26,18
001aed 8daa      	LDD  R26,Y+26
001aee 8dbb      	LDD  R27,Y+26+1
001aef 9615      	ADIW R26,5
001af0 e0e0      	LDI  R30,LOW(0)
001af1 93ec      	ST   X,R30
                 _0x2020147:
001af2 8daa      	LDD  R26,Y+26
001af3 8dbb      	LDD  R27,Y+26+1
001af4 940e 211c 	CALL __GETW1P
001af6 93fa      	ST   -Y,R31
001af7 93ea      	ST   -Y,R30
001af8 8dec      	LDD  R30,Y+28
001af9 8dfd      	LDD  R31,Y+28+1
                +
001afa 89a2     +LDD R26 , Z + 18
001afb 89b3     +LDD R27 , Z + 18 + 1
001afc 8984     +LDD R24 , Z + 18 + 2
001afd 8995     +LDD R25 , Z + 18 + 3
                 	__GETD2Z 18
001afe 940e 1068 	CALL _clust2sect
                +
001b00 87ec     +STD Y + 12 , R30
001b01 87fd     +STD Y + 12 + 1 , R31
001b02 876e     +STD Y + 12 + 2 , R22
001b03 877f     +STD Y + 12 + 3 , R23
                 	__PUTD1S 12
001b04 940e 2160 	CALL __CPD10
001b06 f441      	BRNE _0x202014D
001b07 8daa      	LDD  R26,Y+26
001b08 8dbb      	LDD  R27,Y+26+1
001b09 9614      	ADIW R26,4
001b0a 91ec      	LD   R30,X
001b0b 68e0      	ORI  R30,0x80
001b0c 93ec      	ST   X,R30
001b0d e0e2      	LDI  R30,LOW(2)
001b0e c150      	RJMP _0x20C0004
                 _0x202014D:
001b0f 8dea      	LDD  R30,Y+26
001b10 8dfb      	LDD  R31,Y+26+1
001b11 81e5      	LDD  R30,Z+5
001b12 e0f0      	LDI  R31,0
                +
001b13 85ac     +LDD R26 , Y + 12
001b14 85bd     +LDD R27 , Y + 12 + 1
001b15 858e     +LDD R24 , Y + 12 + 2
001b16 859f     +LDD R25 , Y + 12 + 3
                 	__GETD2S 12
001b17 940e 2097 	CALL __CWD1
001b19 940e 203c 	CALL __ADDD12
                +
001b1b 87ec     +STD Y + 12 , R30
001b1c 87fd     +STD Y + 12 + 1 , R31
001b1d 876e     +STD Y + 12 + 2 , R22
001b1e 877f     +STD Y + 12 + 3 , R23
                 	__PUTD1S 12
001b1f 89ae      	LDD  R26,Y+22
001b20 89bf      	LDD  R27,Y+22+1
001b21 e0e0      	LDI  R30,LOW(512)
001b22 e0f2      	LDI  R31,HIGH(512)
001b23 940e 20d1 	CALL __DIVW21U
001b25 01af      	MOVW R20,R30
001b26 2e04      	MOV  R0,R20
001b27 2a05      	OR   R0,R21
001b28 f409      	BRNE PC+2
001b29 c082      	RJMP _0x202014E
001b2a 8dea      	LDD  R30,Y+26
001b2b 8dfb      	LDD  R31,Y+26+1
001b2c 81e5      	LDD  R30,Z+5
001b2d e0f0      	LDI  R31,0
001b2e 0fe4      	ADD  R30,R20
001b2f 1ff5      	ADC  R31,R21
001b30 010f      	MOVW R0,R30
001b31 8daa      	LDD  R26,Y+26
001b32 8dbb      	LDD  R27,Y+26+1
001b33 940e 211c 	CALL __GETW1P
001b35 81e2      	LDD  R30,Z+2
001b36 01d0      	MOVW R26,R0
001b37 e0f0      	LDI  R31,0
001b38 17ea      	CP   R30,R26
001b39 07fb      	CPC  R31,R27
001b3a f470      	BRSH _0x202014F
001b3b 8daa      	LDD  R26,Y+26
001b3c 8dbb      	LDD  R27,Y+26+1
001b3d 940e 211c 	CALL __GETW1P
001b3f 81e2      	LDD  R30,Z+2
001b40 e0f0      	LDI  R31,0
001b41 01df      	MOVW R26,R30
001b42 8dea      	LDD  R30,Y+26
001b43 8dfb      	LDD  R31,Y+26+1
001b44 81e5      	LDD  R30,Z+5
001b45 e0f0      	LDI  R31,0
001b46 1bae      	SUB  R26,R30
001b47 0bbf      	SBC  R27,R31
001b48 01ad      	MOVW R20,R26
                 _0x202014F:
001b49 8daa      	LDD  R26,Y+26
001b4a 8dbb      	LDD  R27,Y+26+1
001b4b 940e 211c 	CALL __GETW1P
001b4d 81e1      	LDD  R30,Z+1
001b4e 93ea      	ST   -Y,R30
001b4f 81ef      	LDD  R30,Y+7
001b50 85f8      	LDD  R31,Y+7+1
001b51 93fa      	ST   -Y,R31
001b52 93ea      	ST   -Y,R30
                +
001b53 85ef     +LDD R30 , Y + 15
001b54 89f8     +LDD R31 , Y + 15 + 1
001b55 8969     +LDD R22 , Y + 15 + 2
001b56 897a     +LDD R23 , Y + 15 + 3
                 	__GETD1S 15
001b57 940e 2149 	CALL __PUTPARD1
001b59 2fa4      	MOV  R26,R20
001b5a 940e 084e 	CALL _disk_read
001b5c 30e0      	CPI  R30,0
001b5d f041      	BREQ _0x2020150
001b5e 8daa      	LDD  R26,Y+26
001b5f 8dbb      	LDD  R27,Y+26+1
001b60 9614      	ADIW R26,4
001b61 91ec      	LD   R30,X
001b62 68e0      	ORI  R30,0x80
001b63 93ec      	ST   X,R30
001b64 e0e1      	LDI  R30,LOW(1)
001b65 c0f9      	RJMP _0x20C0004
                 _0x2020150:
001b66 8dea      	LDD  R30,Y+26
001b67 8dfb      	LDD  R31,Y+26+1
001b68 81a4      	LDD  R26,Z+4
001b69 74a0      	ANDI R26,LOW(0x40)
001b6a f081      	BREQ _0x2020152
                +
001b6b 89a6     +LDD R26 , Z + 22
001b6c 89b7     +LDD R27 , Z + 22 + 1
001b6d 8d80     +LDD R24 , Z + 22 + 2
001b6e 8d91     +LDD R25 , Z + 22 + 3
                 	__GETD2Z 22
                +
001b6f 85ec     +LDD R30 , Y + 12
001b70 85fd     +LDD R31 , Y + 12 + 1
001b71 856e     +LDD R22 , Y + 12 + 2
001b72 857f     +LDD R23 , Y + 12 + 3
                 	__GETD1S 12
001b73 940e 204b 	CALL __SUBD21
001b75 01fa      	MOVW R30,R20
001b76 2766      	CLR  R22
001b77 2777      	CLR  R23
001b78 940e 216f 	CALL __CPD21
001b7a f008      	BRLO _0x2020153
                 _0x2020152:
001b7b c023      	RJMP _0x2020151
                 _0x2020153:
001b7c 8dea      	LDD  R30,Y+26
001b7d 8dfb      	LDD  R31,Y+26+1
                +
001b7e 89a6     +LDD R26 , Z + 22
001b7f 89b7     +LDD R27 , Z + 22 + 1
001b80 8d80     +LDD R24 , Z + 22 + 2
001b81 8d91     +LDD R25 , Z + 22 + 3
                 	__GETD2Z 22
                +
001b82 85ec     +LDD R30 , Y + 12
001b83 85fd     +LDD R31 , Y + 12 + 1
001b84 856e     +LDD R22 , Y + 12 + 2
001b85 857f     +LDD R23 , Y + 12 + 3
                 	__GETD1S 12
001b86 940e 204b 	CALL __SUBD21
                +
001b88 e0e0     +LDI R30 , LOW ( 0x200 )
001b89 e0f2     +LDI R31 , HIGH ( 0x200 )
001b8a e060     +LDI R22 , BYTE3 ( 0x200 )
001b8b e070     +LDI R23 , BYTE4 ( 0x200 )
                 	__GETD1N 0x200
001b8c 940e 20ab 	CALL __MULD12U
001b8e 81ae      	LDD  R26,Y+6
001b8f 81bf      	LDD  R27,Y+6+1
001b90 2788      	CLR  R24
001b91 2799      	CLR  R25
001b92 0fea      	ADD  R30,R26
001b93 1ffb      	ADC  R31,R27
001b94 93fa      	ST   -Y,R31
001b95 93ea      	ST   -Y,R30
001b96 8dec      	LDD  R30,Y+28
001b97 8dfd      	LDD  R31,Y+28+1
001b98 96b0      	ADIW R30,32
001b99 93fa      	ST   -Y,R31
001b9a 93ea      	ST   -Y,R30
001b9b e0a0      	LDI  R26,LOW(512)
001b9c e0b2      	LDI  R27,HIGH(512)
001b9d 940e 2010 	CALL _memcpy
                 _0x2020151:
001b9f 8daa      	LDD  R26,Y+26
001ba0 8dbb      	LDD  R27,Y+26+1
001ba1 9615      	ADIW R26,5
001ba2 91ec      	LD   R30,X
001ba3 0fe4      	ADD  R30,R20
001ba4 93ec      	ST   X,R30
001ba5 01fa      	MOVW R30,R20
001ba6 0fee      	LSL  R30
001ba7 1fff      	ROL  R31
001ba8 2ffe      	MOV  R31,R30
001ba9 e0e0      	LDI  R30,0
001baa 019f      	MOVW R18,R30
001bab c08b      	RJMP _0x2020143
                 _0x202014E:
001bac 8dea      	LDD  R30,Y+26
001bad 8dfb      	LDD  R31,Y+26+1
001bae 81a4      	LDD  R26,Z+4
001baf 74a0      	ANDI R26,LOW(0x40)
001bb0 f131      	BREQ _0x2020154
001bb1 8daa      	LDD  R26,Y+26
001bb2 8dbb      	LDD  R27,Y+26+1
001bb3 940e 211c 	CALL __GETW1P
001bb5 81e1      	LDD  R30,Z+1
001bb6 93ea      	ST   -Y,R30
001bb7 8deb      	LDD  R30,Y+27
001bb8 8dfc      	LDD  R31,Y+27+1
001bb9 96b0      	ADIW R30,32
001bba 93fa      	ST   -Y,R31
001bbb 93ea      	ST   -Y,R30
001bbc 8ded      	LDD  R30,Y+29
001bbd 8dfe      	LDD  R31,Y+29+1
                +
001bbe 89a6     +LDD R26 , Z + 22
001bbf 89b7     +LDD R27 , Z + 22 + 1
001bc0 8d80     +LDD R24 , Z + 22 + 2
001bc1 8d91     +LDD R25 , Z + 22 + 3
                 	__GETD2Z 22
001bc2 940e 214e 	CALL __PUTPARD2
001bc4 e0a1      	LDI  R26,LOW(1)
001bc5 940e 08b2 	CALL _disk_write
001bc7 30e0      	CPI  R30,0
001bc8 f041      	BREQ _0x2020155
001bc9 8daa      	LDD  R26,Y+26
001bca 8dbb      	LDD  R27,Y+26+1
001bcb 9614      	ADIW R26,4
001bcc 91ec      	LD   R30,X
001bcd 68e0      	ORI  R30,0x80
001bce 93ec      	ST   X,R30
001bcf e0e1      	LDI  R30,LOW(1)
001bd0 c08e      	RJMP _0x20C0004
                 _0x2020155:
001bd1 8daa      	LDD  R26,Y+26
001bd2 8dbb      	LDD  R27,Y+26+1
001bd3 9614      	ADIW R26,4
001bd4 91ec      	LD   R30,X
001bd5 7bef      	ANDI R30,0xBF
001bd6 93ec      	ST   X,R30
                 _0x2020154:
001bd7 8dea      	LDD  R30,Y+26
001bd8 8dfb      	LDD  R31,Y+26+1
                +
001bd9 89a6     +LDD R26 , Z + 22
001bda 89b7     +LDD R27 , Z + 22 + 1
001bdb 8d80     +LDD R24 , Z + 22 + 2
001bdc 8d91     +LDD R25 , Z + 22 + 3
                 	__GETD2Z 22
                +
001bdd 85ec     +LDD R30 , Y + 12
001bde 85fd     +LDD R31 , Y + 12 + 1
001bdf 856e     +LDD R22 , Y + 12 + 2
001be0 857f     +LDD R23 , Y + 12 + 3
                 	__GETD1S 12
001be1 940e 216a 	CALL __CPD12
001be3 f0f1      	BREQ _0x2020156
001be4 8daa      	LDD  R26,Y+26
001be5 8dbb      	LDD  R27,Y+26+1
001be6 940e 211c 	CALL __GETW1P
001be8 81e1      	LDD  R30,Z+1
001be9 93ea      	ST   -Y,R30
001bea 8deb      	LDD  R30,Y+27
001beb 8dfc      	LDD  R31,Y+27+1
001bec 96b0      	ADIW R30,32
001bed 93fa      	ST   -Y,R31
001bee 93ea      	ST   -Y,R30
                +
001bef 85ef     +LDD R30 , Y + 15
001bf0 89f8     +LDD R31 , Y + 15 + 1
001bf1 8969     +LDD R22 , Y + 15 + 2
001bf2 897a     +LDD R23 , Y + 15 + 3
                 	__GETD1S 15
001bf3 940e 2149 	CALL __PUTPARD1
001bf5 e0a1      	LDI  R26,LOW(1)
001bf6 940e 084e 	CALL _disk_read
001bf8 30e0      	CPI  R30,0
001bf9 f041      	BREQ _0x2020157
001bfa 8daa      	LDD  R26,Y+26
001bfb 8dbb      	LDD  R27,Y+26+1
001bfc 9614      	ADIW R26,4
001bfd 91ec      	LD   R30,X
001bfe 68e0      	ORI  R30,0x80
001bff 93ec      	ST   X,R30
001c00 e0e1      	LDI  R30,LOW(1)
001c01 c05d      	RJMP _0x20C0004
                 _0x2020157:
                 _0x2020156:
                +
001c02 85ec     +LDD R30 , Y + 12
001c03 85fd     +LDD R31 , Y + 12 + 1
001c04 856e     +LDD R22 , Y + 12 + 2
001c05 857f     +LDD R23 , Y + 12 + 3
                 	__GETD1S 12
                +
001c06 8daa     +LDD R26 , Y + 26
001c07 8dbb     +LDD R27 , Y + 26 + 1
001c08 9656     +ADIW R26 , 22
001c09 940e 212b+CALL __PUTDP1
                 	__PUTD1SNS 26,22
001c0b 8daa      	LDD  R26,Y+26
001c0c 8dbb      	LDD  R27,Y+26+1
001c0d 9615      	ADIW R26,5
001c0e 91ec      	LD   R30,X
001c0f 5fef      	SUBI R30,-LOW(1)
001c10 93ec      	ST   X,R30
                 _0x2020146:
001c11 8daa      	LDD  R26,Y+26
001c12 8dbb      	LDD  R27,Y+26+1
001c13 9616      	ADIW R26,6
001c14 940e 211c 	CALL __GETW1P
001c16 70f1      	ANDI R31,HIGH(0x1FF)
001c17 e0a0      	LDI  R26,LOW(512)
001c18 e0b2      	LDI  R27,HIGH(512)
001c19 1bae      	SUB  R26,R30
001c1a 0bbf      	SBC  R27,R31
001c1b 019d      	MOVW R18,R26
001c1c 89ee      	LDD  R30,Y+22
001c1d 89ff      	LDD  R31,Y+22+1
001c1e 17e2      	CP   R30,R18
001c1f 07f3      	CPC  R31,R19
001c20 f410      	BRSH _0x2020158
                +
001c21 892e     +LDD R18 , Y + 22
001c22 893f     +LDD R19 , Y + 22 + 1
                 	__GETWRS 18,19,22
                 _0x2020158:
001c23 81ee      	LDD  R30,Y+6
001c24 81ff      	LDD  R31,Y+6+1
001c25 93fa      	ST   -Y,R31
001c26 93ea      	ST   -Y,R30
001c27 8dac      	LDD  R26,Y+28
001c28 8dbd      	LDD  R27,Y+28+1
001c29 9616      	ADIW R26,6
001c2a 940e 211c 	CALL __GETW1P
001c2c 70f1      	ANDI R31,HIGH(0x1FF)
001c2d 8dac      	LDD  R26,Y+28
001c2e 8dbd      	LDD  R27,Y+28+1
001c2f 9690      	ADIW R26,32
001c30 0fea      	ADD  R30,R26
001c31 1ffb      	ADC  R31,R27
001c32 93fa      	ST   -Y,R31
001c33 93ea      	ST   -Y,R30
001c34 01d9      	MOVW R26,R18
001c35 940e 2010 	CALL _memcpy
                 _0x2020143:
001c37 01f9      	MOVW R30,R18
001c38 81ae      	LDD  R26,Y+6
001c39 81bf      	LDD  R27,Y+6+1
001c3a 0fea      	ADD  R30,R26
001c3b 1ffb      	ADC  R31,R27
001c3c 83ee      	STD  Y+6,R30
001c3d 83ff      	STD  Y+6+1,R31
001c3e 8dea      	LDD  R30,Y+26
001c3f 8dfb      	LDD  R31,Y+26+1
001c40 9636      	ADIW R30,6
001c41 010f      	MOVW R0,R30
001c42 01df      	MOVW R26,R30
001c43 940e 2120 	CALL __GETD1P
001c45 01df      	MOVW R26,R30
001c46 01cb      	MOVW R24,R22
001c47 01f9      	MOVW R30,R18
001c48 2766      	CLR  R22
001c49 2777      	CLR  R23
001c4a 940e 203c 	CALL __ADDD12
001c4c 01d0      	MOVW R26,R0
001c4d 940e 212b 	CALL __PUTDP1
001c4f 89ac      	LDD  R26,Y+20
001c50 89bd      	LDD  R27,Y+20+1
001c51 940e 211c 	CALL __GETW1P
001c53 0fe2      	ADD  R30,R18
001c54 1ff3      	ADC  R31,R19
001c55 93ed      	ST   X+,R30
001c56 93fc      	ST   X,R31
001c57 89ee      	LDD  R30,Y+22
001c58 89ff      	LDD  R31,Y+22+1
001c59 1be2      	SUB  R30,R18
001c5a 0bf3      	SBC  R31,R19
001c5b 8bee      	STD  Y+22,R30
001c5c 8bff      	STD  Y+22+1,R31
001c5d ce21      	RJMP _0x2020144
                 _0x2020145:
001c5e e0e0      	LDI  R30,LOW(0)
                 _0x20C0004:
001c5f 940e 217b 	CALL __LOADLOCR6
001c61 966c      	ADIW R28,28
001c62 9508      	RET
                 ; .FEND
                 _f_sync:
                 ; .FSTART _f_sync
001c63 93ba      	ST   -Y,R27
001c64 93aa      	ST   -Y,R26
001c65 9724      	SBIW R28,4
001c66 940e 2176 	CALL __SAVELOCR4
001c68 85a8      	LDD  R26,Y+8
001c69 85b9      	LDD  R27,Y+8+1
001c6a 940e 211c 	CALL __GETW1P
001c6c 93fa      	ST   -Y,R31
001c6d 93ea      	ST   -Y,R30
001c6e 85ea      	LDD  R30,Y+10
001c6f 85fb      	LDD  R31,Y+10+1
001c70 81a2      	LDD  R26,Z+2
001c71 81b3      	LDD  R27,Z+3
001c72 dc0e      	RCALL _validate_G101
001c73 2f1e      	MOV  R17,R30
001c74 3010      	CPI  R17,0
001c75 f009      	BREQ PC+2
001c76 c084      	RJMP _0x2020175
001c77 85e8      	LDD  R30,Y+8
001c78 85f9      	LDD  R31,Y+8+1
001c79 81a4      	LDD  R26,Z+4
001c7a 72a0      	ANDI R26,LOW(0x20)
001c7b f409      	BRNE PC+2
001c7c c07e      	RJMP _0x2020176
001c7d 81a4      	LDD  R26,Z+4
001c7e 74a0      	ANDI R26,LOW(0x40)
001c7f f101      	BREQ _0x2020177
001c80 85a8      	LDD  R26,Y+8
001c81 85b9      	LDD  R27,Y+8+1
001c82 940e 211c 	CALL __GETW1P
001c84 81e1      	LDD  R30,Z+1
001c85 93ea      	ST   -Y,R30
001c86 85e9      	LDD  R30,Y+9
001c87 85fa      	LDD  R31,Y+9+1
001c88 96b0      	ADIW R30,32
001c89 93fa      	ST   -Y,R31
001c8a 93ea      	ST   -Y,R30
001c8b 85eb      	LDD  R30,Y+11
001c8c 85fc      	LDD  R31,Y+11+1
                +
001c8d 89a6     +LDD R26 , Z + 22
001c8e 89b7     +LDD R27 , Z + 22 + 1
001c8f 8d80     +LDD R24 , Z + 22 + 2
001c90 8d91     +LDD R25 , Z + 22 + 3
                 	__GETD2Z 22
001c91 940e 214e 	CALL __PUTPARD2
001c93 e0a1      	LDI  R26,LOW(1)
001c94 940e 08b2 	CALL _disk_write
001c96 30e0      	CPI  R30,0
001c97 f011      	BREQ _0x2020178
001c98 e0e1      	LDI  R30,LOW(1)
001c99 c062      	RJMP _0x20C0003
                 _0x2020178:
001c9a 85a8      	LDD  R26,Y+8
001c9b 85b9      	LDD  R27,Y+8+1
001c9c 9614      	ADIW R26,4
001c9d 91ec      	LD   R30,X
001c9e 7bef      	ANDI R30,0xBF
001c9f 93ec      	ST   X,R30
                 _0x2020177:
001ca0 85a8      	LDD  R26,Y+8
001ca1 85b9      	LDD  R27,Y+8+1
001ca2 940e 211c 	CALL __GETW1P
001ca4 93fa      	ST   -Y,R31
001ca5 93ea      	ST   -Y,R30
001ca6 85ea      	LDD  R30,Y+10
001ca7 85fb      	LDD  R31,Y+10+1
                +
001ca8 8da2     +LDD R26 , Z + 26
001ca9 8db3     +LDD R27 , Z + 26 + 1
001caa 8d84     +LDD R24 , Z + 26 + 2
001cab 8d95     +LDD R25 , Z + 26 + 3
                 	__GETD2Z 26
001cac 940e 0b79 	CALL _move_window_G101
001cae 2f1e      	MOV  R17,R30
001caf 3010      	CPI  R17,0
001cb0 f009      	BREQ PC+2
001cb1 c049      	RJMP _0x2020179
001cb2 85a8      	LDD  R26,Y+8
001cb3 85b9      	LDD  R27,Y+8+1
001cb4 965e      	ADIW R26,30
001cb5 912d      	LD   R18,X+
001cb6 913c      	LD   R19,X
001cb7 01d9      	MOVW R26,R18
001cb8 961b      	ADIW R26,11
001cb9 91ec      	LD   R30,X
001cba 62e0      	ORI  R30,0x20
001cbb 93ec      	ST   X,R30
001cbc 85a8      	LDD  R26,Y+8
001cbd 85b9      	LDD  R27,Y+8+1
001cbe 961a      	ADIW R26,10
001cbf 940e 2120 	CALL __GETD1P
                +
001cc1 01d9     +MOVW R26 , R18
001cc2 965c     +ADIW R26 , 28
001cc3 940e 212b+CALL __PUTDP1
                 	__PUTD1RNS 18,28
001cc5 85a8      	LDD  R26,Y+8
001cc6 85b9      	LDD  R27,Y+8+1
001cc7 961e      	ADIW R26,14
001cc8 940e 211c 	CALL __GETW1P
                +
001cca 01d9     +MOVW R26 , R18
001ccb 965a     +ADIW R26 , 26
001ccc 93ed     +ST X + , R30
001ccd 93fc     +ST X , R31
                 	__PUTW1RNS 18,26
001cce 85e8      	LDD  R30,Y+8
001ccf 85f9      	LDD  R31,Y+8+1
                +
001cd0 85a6     +LDD R26 , Z + 14
001cd1 85b7     +LDD R27 , Z + 14 + 1
001cd2 8980     +LDD R24 , Z + 14 + 2
001cd3 8991     +LDD R25 , Z + 14 + 3
                 	__GETD2Z 14
001cd4 01fd      	MOVW R30,R26
001cd5 01bc      	MOVW R22,R24
001cd6 940e 208d 	CALL __LSRD16
                +
001cd8 01d9     +MOVW R26 , R18
001cd9 9654     +ADIW R26 , 20
001cda 93ed     +ST X + , R30
001cdb 93fc     +ST X , R31
                 	__PUTW1RNS 18,20
001cdc 940e 0ad8 	CALL _get_fattime
                +
001cde 83ec     +STD Y + 4 , R30
001cdf 83fd     +STD Y + 4 + 1 , R31
001ce0 836e     +STD Y + 4 + 2 , R22
001ce1 837f     +STD Y + 4 + 3 , R23
                 	__PUTD1S 4
                +
001ce2 01d9     +MOVW R26 , R18
001ce3 9656     +ADIW R26 , 22
001ce4 940e 212b+CALL __PUTDP1
                 	__PUTD1RNS 18,22
001ce6 85a8      	LDD  R26,Y+8
001ce7 85b9      	LDD  R27,Y+8+1
001ce8 9614      	ADIW R26,4
001ce9 91ec      	LD   R30,X
001cea 7def      	ANDI R30,0xDF
001ceb 93ec      	ST   X,R30
001cec 85a8      	LDD  R26,Y+8
001ced 85b9      	LDD  R27,Y+8+1
001cee 940e 211c 	CALL __GETW1P
001cf0 9634      	ADIW R30,4
001cf1 e0a1      	LDI  R26,LOW(1)
001cf2 83a0      	STD  Z+0,R26
001cf3 85a8      	LDD  R26,Y+8
001cf4 85b9      	LDD  R27,Y+8+1
001cf5 940e 211c 	CALL __GETW1P
001cf7 01df      	MOVW R26,R30
001cf8 940e 0c18 	CALL _sync_G101
001cfa 2f1e      	MOV  R17,R30
                 _0x2020179:
                 _0x2020176:
                 _0x2020175:
001cfb 2fe1      	MOV  R30,R17
                 _0x20C0003:
001cfc 940e 217d 	CALL __LOADLOCR4
001cfe 962a      	ADIW R28,10
001cff 9508      	RET
                 ; .FEND
                 _f_close:
                 ; .FSTART _f_close
001d00 93ba      	ST   -Y,R27
001d01 93aa      	ST   -Y,R26
001d02 931a      	ST   -Y,R17
001d03 81a9      	LDD  R26,Y+1
001d04 81ba      	LDD  R27,Y+1+1
001d05 df5d      	RCALL _f_sync
001d06 2f1e      	MOV  R17,R30
001d07 3010      	CPI  R17,0
001d08 f431      	BRNE _0x202017A
001d09 81a9      	LDD  R26,Y+1
001d0a 81ba      	LDD  R27,Y+1+1
001d0b e0e0      	LDI  R30,LOW(0)
001d0c e0f0      	LDI  R31,HIGH(0)
001d0d 93ed      	ST   X+,R30
001d0e 93fc      	ST   X,R31
                 _0x202017A:
001d0f 2fe1      	MOV  R30,R17
001d10 8118      	LDD  R17,Y+0
001d11 9623      	ADIW R28,3
001d12 9508      	RET
                 ; .FEND
                 _f_lseek:
                 ; .FSTART _f_lseek
001d13 940e 214e 	CALL __PUTPARD2
001d15 9760      	SBIW R28,16
001d16 931a      	ST   -Y,R17
001d17 89ad      	LDD  R26,Y+21
001d18 89be      	LDD  R27,Y+21+1
001d19 940e 211c 	CALL __GETW1P
001d1b 93fa      	ST   -Y,R31
001d1c 93ea      	ST   -Y,R30
001d1d 89ef      	LDD  R30,Y+23
001d1e 8df8      	LDD  R31,Y+23+1
001d1f 81a2      	LDD  R26,Z+2
001d20 81b3      	LDD  R27,Z+3
001d21 db5f      	RCALL _validate_G101
001d22 2f1e      	MOV  R17,R30
001d23 3010      	CPI  R17,0
001d24 f009      	BREQ _0x2020183
001d25 c29a      	RJMP _0x20C0002
                 _0x2020183:
001d26 89ed      	LDD  R30,Y+21
001d27 89fe      	LDD  R31,Y+21+1
001d28 81a4      	LDD  R26,Z+4
001d29 78a0      	ANDI R26,LOW(0x80)
001d2a f011      	BREQ _0x2020184
001d2b e0e2      	LDI  R30,LOW(2)
001d2c c294      	RJMP _0x20C0001
                 _0x2020184:
001d2d 89ad      	LDD  R26,Y+21
001d2e 89be      	LDD  R27,Y+21+1
001d2f 961a      	ADIW R26,10
001d30 940e 2120 	CALL __GETD1P
                +
001d32 89a9     +LDD R26 , Y + 17
001d33 89ba     +LDD R27 , Y + 17 + 1
001d34 898b     +LDD R24 , Y + 17 + 2
001d35 899c     +LDD R25 , Y + 17 + 3
                 	__GETD2S 17
001d36 940e 216a 	CALL __CPD12
001d38 f428      	BRSH _0x2020186
001d39 89ed      	LDD  R30,Y+21
001d3a 89fe      	LDD  R31,Y+21+1
001d3b 81a4      	LDD  R26,Z+4
001d3c 70a2      	ANDI R26,LOW(0x2)
001d3d f009      	BREQ _0x2020187
                 _0x2020186:
001d3e c009      	RJMP _0x2020185
                 _0x2020187:
001d3f 89ad      	LDD  R26,Y+21
001d40 89be      	LDD  R27,Y+21+1
001d41 961a      	ADIW R26,10
001d42 940e 2120 	CALL __GETD1P
                +
001d44 8be9     +STD Y + 17 , R30
001d45 8bfa     +STD Y + 17 + 1 , R31
001d46 8b6b     +STD Y + 17 + 2 , R22
001d47 8b7c     +STD Y + 17 + 3 , R23
                 	__PUTD1S 17
                 _0x2020185:
001d48 89ad      	LDD  R26,Y+21
001d49 89be      	LDD  R27,Y+21+1
001d4a 9616      	ADIW R26,6
001d4b 940e 2120 	CALL __GETD1P
                +
001d4d 83e9     +STD Y + 1 , R30
001d4e 83fa     +STD Y + 1 + 1 , R31
001d4f 836b     +STD Y + 1 + 2 , R22
001d50 837c     +STD Y + 1 + 3 , R23
                 	__PUTD1S 1
                +
001d51 e0e0     +LDI R30 , LOW ( 0x0 )
001d52 e0f0     +LDI R31 , HIGH ( 0x0 )
001d53 e060     +LDI R22 , BYTE3 ( 0x0 )
001d54 e070     +LDI R23 , BYTE4 ( 0x0 )
                 	__GETD1N 0x0
                +
001d55 83ed     +STD Y + 5 , R30
001d56 83fe     +STD Y + 5 + 1 , R31
001d57 836f     +STD Y + 5 + 2 , R22
001d58 8778     +STD Y + 5 + 3 , R23
                 	__PUTD1S 5
                +
001d59 89ad     +LDD R26 , Y + 21
001d5a 89be     +LDD R27 , Y + 21 + 1
001d5b 9616     +ADIW R26 , 6
001d5c 940e 212b+CALL __PUTDP1
                 	__PUTD1SNS 21,6
001d5e 89ad      	LDD  R26,Y+21
001d5f 89be      	LDD  R27,Y+21+1
001d60 9615      	ADIW R26,5
001d61 efef      	LDI  R30,LOW(255)
001d62 93ec      	ST   X,R30
                +
001d63 89a9     +LDD R26 , Y + 17
001d64 89ba     +LDD R27 , Y + 17 + 1
001d65 898b     +LDD R24 , Y + 17 + 2
001d66 899c     +LDD R25 , Y + 17 + 3
                 	__GETD2S 17
001d67 940e 2164 	CALL __CPD02
001d69 f008      	BRLO PC+2
001d6a c1cb      	RJMP _0x2020188
001d6b 89ad      	LDD  R26,Y+21
001d6c 89be      	LDD  R27,Y+21+1
001d6d 940e 211c 	CALL __GETW1P
001d6f 81e2      	LDD  R30,Z+2
001d70 e0f0      	LDI  R31,0
001d71 940e 2097 	CALL __CWD1
                +
001d73 e0a0     +LDI R26 , LOW ( 0x200 )
001d74 e0b2     +LDI R27 , HIGH ( 0x200 )
001d75 e080     +LDI R24 , BYTE3 ( 0x200 )
001d76 e090     +LDI R25 , BYTE4 ( 0x200 )
                 	__GETD2N 0x200
001d77 940e 20ab 	CALL __MULD12U
                +
001d79 87e9     +STD Y + 9 , R30
001d7a 87fa     +STD Y + 9 + 1 , R31
001d7b 876b     +STD Y + 9 + 2 , R22
001d7c 877c     +STD Y + 9 + 3 , R23
                 	__PUTD1S 9
                +
001d7d 81a9     +LDD R26 , Y + 1
001d7e 81ba     +LDD R27 , Y + 1 + 1
001d7f 818b     +LDD R24 , Y + 1 + 2
001d80 819c     +LDD R25 , Y + 1 + 3
                 	__GETD2S 1
001d81 940e 2164 	CALL __CPD02
001d83 f558      	BRSH _0x202018A
                +
001d84 89e9     +LDD R30 , Y + 17
001d85 89fa     +LDD R31 , Y + 17 + 1
001d86 896b     +LDD R22 , Y + 17 + 2
001d87 897c     +LDD R23 , Y + 17 + 3
                 	__GETD1S 17
                +
001d88 50e1     +SUBI R30 , LOW ( 1 )
001d89 40f0     +SBCI R31 , HIGH ( 1 )
001d8a 4060     +SBCI R22 , BYTE3 ( 1 )
001d8b 4070     +SBCI R23 , BYTE4 ( 1 )
                 	__SUBD1N 1
001d8c 01df      	MOVW R26,R30
001d8d 01cb      	MOVW R24,R22
                +
001d8e 85e9     +LDD R30 , Y + 9
001d8f 85fa     +LDD R31 , Y + 9 + 1
001d90 856b     +LDD R22 , Y + 9 + 2
001d91 857c     +LDD R23 , Y + 9 + 3
                 	__GETD1S 9
001d92 940e 20e9 	CALL __DIVD21U
001d94 937f      	PUSH R23
001d95 936f      	PUSH R22
001d96 93ff      	PUSH R31
001d97 93ef      	PUSH R30
                +
001d98 81e9     +LDD R30 , Y + 1
001d99 81fa     +LDD R31 , Y + 1 + 1
001d9a 816b     +LDD R22 , Y + 1 + 2
001d9b 817c     +LDD R23 , Y + 1 + 3
                 	__GETD1S 1
                +
001d9c 50e1     +SUBI R30 , LOW ( 1 )
001d9d 40f0     +SBCI R31 , HIGH ( 1 )
001d9e 4060     +SBCI R22 , BYTE3 ( 1 )
001d9f 4070     +SBCI R23 , BYTE4 ( 1 )
                 	__SUBD1N 1
001da0 01df      	MOVW R26,R30
001da1 01cb      	MOVW R24,R22
                +
001da2 85e9     +LDD R30 , Y + 9
001da3 85fa     +LDD R31 , Y + 9 + 1
001da4 856b     +LDD R22 , Y + 9 + 2
001da5 857c     +LDD R23 , Y + 9 + 3
                 	__GETD1S 9
001da6 940e 20e9 	CALL __DIVD21U
001da8 91af      	POP  R26
001da9 91bf      	POP  R27
001daa 918f      	POP  R24
001dab 919f      	POP  R25
001dac 940e 216f 	CALL __CPD21
001dae f408      	BRSH _0x202018B
                 _0x202018A:
001daf c034      	RJMP _0x2020189
                 _0x202018B:
                +
001db0 81e9     +LDD R30 , Y + 1
001db1 81fa     +LDD R31 , Y + 1 + 1
001db2 816b     +LDD R22 , Y + 1 + 2
001db3 817c     +LDD R23 , Y + 1 + 3
                 	__GETD1S 1
                +
001db4 50e1     +SUBI R30 , LOW ( 1 )
001db5 40f0     +SBCI R31 , HIGH ( 1 )
001db6 4060     +SBCI R22 , BYTE3 ( 1 )
001db7 4070     +SBCI R23 , BYTE4 ( 1 )
                 	__SUBD1N 1
001db8 01df      	MOVW R26,R30
001db9 01cb      	MOVW R24,R22
                +
001dba 85e9     +LDD R30 , Y + 9
001dbb 85fa     +LDD R31 , Y + 9 + 1
001dbc 856b     +LDD R22 , Y + 9 + 2
001dbd 857c     +LDD R23 , Y + 9 + 3
                 	__GETD1S 9
                +
001dbe 50e1     +SUBI R30 , LOW ( 1 )
001dbf 40f0     +SBCI R31 , HIGH ( 1 )
001dc0 4060     +SBCI R22 , BYTE3 ( 1 )
001dc1 4070     +SBCI R23 , BYTE4 ( 1 )
                 	__SUBD1N 1
001dc2 940e 209c 	CALL __COMD1
001dc4 940e 2050 	CALL __ANDD12
                +
001dc6 89ad     +LDD R26 , Y + 21
001dc7 89be     +LDD R27 , Y + 21 + 1
001dc8 9616     +ADIW R26 , 6
001dc9 940e 212b+CALL __PUTDP1
                 	__PUTD1SNS 21,6
001dcb 89ad      	LDD  R26,Y+21
001dcc 89be      	LDD  R27,Y+21+1
001dcd 9616      	ADIW R26,6
001dce 940e 2120 	CALL __GETD1P
                +
001dd0 89a9     +LDD R26 , Y + 17
001dd1 89ba     +LDD R27 , Y + 17 + 1
001dd2 898b     +LDD R24 , Y + 17 + 2
001dd3 899c     +LDD R25 , Y + 17 + 3
                 	__GETD2S 17
001dd4 940e 204b 	CALL __SUBD21
                +
001dd6 8ba9     +STD Y + 17 , R26
001dd7 8bba     +STD Y + 17 + 1 , R27
001dd8 8b8b     +STD Y + 17 + 2 , R24
001dd9 8b9c     +STD Y + 17 + 3 , R25
                 	__PUTD2S 17
001dda 89ad      	LDD  R26,Y+21
001ddb 89be      	LDD  R27,Y+21+1
001ddc 9652      	ADIW R26,18
001ddd 940e 2120 	CALL __GETD1P
                +
001ddf 87ed     +STD Y + 13 , R30
001de0 87fe     +STD Y + 13 + 1 , R31
001de1 876f     +STD Y + 13 + 2 , R22
001de2 8b78     +STD Y + 13 + 3 , R23
                 	__PUTD1S 13
001de3 c057      	RJMP _0x202018C
                 _0x2020189:
001de4 89ad      	LDD  R26,Y+21
001de5 89be      	LDD  R27,Y+21+1
001de6 961e      	ADIW R26,14
001de7 940e 2120 	CALL __GETD1P
                +
001de9 87ed     +STD Y + 13 , R30
001dea 87fe     +STD Y + 13 + 1 , R31
001deb 876f     +STD Y + 13 + 2 , R22
001dec 8b78     +STD Y + 13 + 3 , R23
                 	__PUTD1S 13
001ded 940e 2160 	CALL __CPD10
001def f009      	BREQ PC+2
001df0 c041      	RJMP _0x202018D
001df1 89ad      	LDD  R26,Y+21
001df2 89be      	LDD  R27,Y+21+1
001df3 940e 211c 	CALL __GETW1P
001df5 93fa      	ST   -Y,R31
001df6 93ea      	ST   -Y,R30
                +
001df7 e0a0     +LDI R26 , LOW ( 0x0 )
001df8 e0b0     +LDI R27 , HIGH ( 0x0 )
001df9 e080     +LDI R24 , BYTE3 ( 0x0 )
001dfa e090     +LDI R25 , BYTE4 ( 0x0 )
                 	__GETD2N 0x0
001dfb 940e 0f37 	CALL _create_chain_G101
                +
001dfd 87ed     +STD Y + 13 , R30
001dfe 87fe     +STD Y + 13 + 1 , R31
001dff 876f     +STD Y + 13 + 2 , R22
001e00 8b78     +STD Y + 13 + 3 , R23
                 	__PUTD1S 13
                +
001e01 85ad     +LDD R26 , Y + 13
001e02 85be     +LDD R27 , Y + 13 + 1
001e03 858f     +LDD R24 , Y + 13 + 2
001e04 8998     +LDD R25 , Y + 13 + 3
                 	__GETD2S 13
                +
001e05 30a1     +CPI R26 , LOW ( 0x1 )
001e06 e0e0     +LDI R30 , HIGH ( 0x1 )
001e07 07be     +CPC R27 , R30
001e08 e0e0     +LDI R30 , BYTE3 ( 0x1 )
001e09 078e     +CPC R24 , R30
001e0a e0e0     +LDI R30 , BYTE4 ( 0x1 )
001e0b 079e     +CPC R25 , R30
                 	__CPD2N 0x1
001e0c f441      	BRNE _0x202018E
001e0d 89ad      	LDD  R26,Y+21
001e0e 89be      	LDD  R27,Y+21+1
001e0f 9614      	ADIW R26,4
001e10 91ec      	LD   R30,X
001e11 68e0      	ORI  R30,0x80
001e12 93ec      	ST   X,R30
001e13 e0e2      	LDI  R30,LOW(2)
001e14 c1ac      	RJMP _0x20C0001
                 _0x202018E:
                +
001e15 85ad     +LDD R26 , Y + 13
001e16 85be     +LDD R27 , Y + 13 + 1
001e17 858f     +LDD R24 , Y + 13 + 2
001e18 8998     +LDD R25 , Y + 13 + 3
                 	__GETD2S 13
                +
001e19 3faf     +CPI R26 , LOW ( 0xFFFFFFFF )
001e1a efef     +LDI R30 , HIGH ( 0xFFFFFFFF )
001e1b 07be     +CPC R27 , R30
001e1c efef     +LDI R30 , BYTE3 ( 0xFFFFFFFF )
001e1d 078e     +CPC R24 , R30
001e1e efef     +LDI R30 , BYTE4 ( 0xFFFFFFFF )
001e1f 079e     +CPC R25 , R30
                 	__CPD2N 0xFFFFFFFF
001e20 f441      	BRNE _0x202018F
001e21 89ad      	LDD  R26,Y+21
001e22 89be      	LDD  R27,Y+21+1
001e23 9614      	ADIW R26,4
001e24 91ec      	LD   R30,X
001e25 68e0      	ORI  R30,0x80
001e26 93ec      	ST   X,R30
001e27 e0e1      	LDI  R30,LOW(1)
001e28 c198      	RJMP _0x20C0001
                 _0x202018F:
                +
001e29 85ed     +LDD R30 , Y + 13
001e2a 85fe     +LDD R31 , Y + 13 + 1
001e2b 856f     +LDD R22 , Y + 13 + 2
001e2c 8978     +LDD R23 , Y + 13 + 3
                 	__GETD1S 13
                +
001e2d 89ad     +LDD R26 , Y + 21
001e2e 89be     +LDD R27 , Y + 21 + 1
001e2f 961e     +ADIW R26 , 14
001e30 940e 212b+CALL __PUTDP1
                 	__PUTD1SNS 21,14
                 _0x202018D:
                +
001e32 85ed     +LDD R30 , Y + 13
001e33 85fe     +LDD R31 , Y + 13 + 1
001e34 856f     +LDD R22 , Y + 13 + 2
001e35 8978     +LDD R23 , Y + 13 + 3
                 	__GETD1S 13
                +
001e36 89ad     +LDD R26 , Y + 21
001e37 89be     +LDD R27 , Y + 21 + 1
001e38 9652     +ADIW R26 , 18
001e39 940e 212b+CALL __PUTDP1
                 	__PUTD1SNS 21,18
                 _0x202018C:
                +
001e3b 85ed     +LDD R30 , Y + 13
001e3c 85fe     +LDD R31 , Y + 13 + 1
001e3d 856f     +LDD R22 , Y + 13 + 2
001e3e 8978     +LDD R23 , Y + 13 + 3
                 	__GETD1S 13
001e3f 940e 2160 	CALL __CPD10
001e41 f409      	BRNE PC+2
001e42 c0f3      	RJMP _0x2020190
                 _0x2020191:
                +
001e43 85e9     +LDD R30 , Y + 9
001e44 85fa     +LDD R31 , Y + 9 + 1
001e45 856b     +LDD R22 , Y + 9 + 2
001e46 857c     +LDD R23 , Y + 9 + 3
                 	__GETD1S 9
                +
001e47 89a9     +LDD R26 , Y + 17
001e48 89ba     +LDD R27 , Y + 17 + 1
001e49 898b     +LDD R24 , Y + 17 + 2
001e4a 899c     +LDD R25 , Y + 17 + 3
                 	__GETD2S 17
001e4b 940e 216a 	CALL __CPD12
001e4d f008      	BRLO PC+2
001e4e c091      	RJMP _0x2020193
001e4f 89ed      	LDD  R30,Y+21
001e50 89fe      	LDD  R31,Y+21+1
001e51 81a4      	LDD  R26,Z+4
001e52 70a2      	ANDI R26,LOW(0x2)
001e53 f0e9      	BREQ _0x2020194
001e54 89ad      	LDD  R26,Y+21
001e55 89be      	LDD  R27,Y+21+1
001e56 940e 211c 	CALL __GETW1P
001e58 93fa      	ST   -Y,R31
001e59 93ea      	ST   -Y,R30
                +
001e5a 85af     +LDD R26 , Y + 15
001e5b 89b8     +LDD R27 , Y + 15 + 1
001e5c 8989     +LDD R24 , Y + 15 + 2
001e5d 899a     +LDD R25 , Y + 15 + 3
                 	__GETD2S 15
001e5e 940e 0f37 	CALL _create_chain_G101
                +
001e60 87ed     +STD Y + 13 , R30
001e61 87fe     +STD Y + 13 + 1 , R31
001e62 876f     +STD Y + 13 + 2 , R22
001e63 8b78     +STD Y + 13 + 3 , R23
                 	__PUTD1S 13
001e64 940e 2160 	CALL __CPD10
001e66 f449      	BRNE _0x2020195
                +
001e67 85e9     +LDD R30 , Y + 9
001e68 85fa     +LDD R31 , Y + 9 + 1
001e69 856b     +LDD R22 , Y + 9 + 2
001e6a 857c     +LDD R23 , Y + 9 + 3
                 	__GETD1S 9
                +
001e6b 8be9     +STD Y + 17 , R30
001e6c 8bfa     +STD Y + 17 + 1 , R31
001e6d 8b6b     +STD Y + 17 + 2 , R22
001e6e 8b7c     +STD Y + 17 + 3 , R23
                 	__PUTD1S 17
001e6f c070      	RJMP _0x2020193
                 _0x2020195:
001e70 c010      	RJMP _0x2020196
                 _0x2020194:
001e71 89ad      	LDD  R26,Y+21
001e72 89be      	LDD  R27,Y+21+1
001e73 940e 211c 	CALL __GETW1P
001e75 93fa      	ST   -Y,R31
001e76 93ea      	ST   -Y,R30
                +
001e77 85af     +LDD R26 , Y + 15
001e78 89b8     +LDD R27 , Y + 15 + 1
001e79 8989     +LDD R24 , Y + 15 + 2
001e7a 899a     +LDD R25 , Y + 15 + 3
                 	__GETD2S 15
001e7b 940e 0ca8 	CALL _get_fat
                +
001e7d 87ed     +STD Y + 13 , R30
001e7e 87fe     +STD Y + 13 + 1 , R31
001e7f 876f     +STD Y + 13 + 2 , R22
001e80 8b78     +STD Y + 13 + 3 , R23
                 	__PUTD1S 13
                 _0x2020196:
                +
001e81 85ad     +LDD R26 , Y + 13
001e82 85be     +LDD R27 , Y + 13 + 1
001e83 858f     +LDD R24 , Y + 13 + 2
001e84 8998     +LDD R25 , Y + 13 + 3
                 	__GETD2S 13
                +
001e85 3faf     +CPI R26 , LOW ( 0xFFFFFFFF )
001e86 efef     +LDI R30 , HIGH ( 0xFFFFFFFF )
001e87 07be     +CPC R27 , R30
001e88 efef     +LDI R30 , BYTE3 ( 0xFFFFFFFF )
001e89 078e     +CPC R24 , R30
001e8a efef     +LDI R30 , BYTE4 ( 0xFFFFFFFF )
001e8b 079e     +CPC R25 , R30
                 	__CPD2N 0xFFFFFFFF
001e8c f441      	BRNE _0x2020197
001e8d 89ad      	LDD  R26,Y+21
001e8e 89be      	LDD  R27,Y+21+1
001e8f 9614      	ADIW R26,4
001e90 91ec      	LD   R30,X
001e91 68e0      	ORI  R30,0x80
001e92 93ec      	ST   X,R30
001e93 e0e1      	LDI  R30,LOW(1)
001e94 c12c      	RJMP _0x20C0001
                 _0x2020197:
                +
001e95 85ad     +LDD R26 , Y + 13
001e96 85be     +LDD R27 , Y + 13 + 1
001e97 858f     +LDD R24 , Y + 13 + 2
001e98 8998     +LDD R25 , Y + 13 + 3
                 	__GETD2S 13
                +
001e99 30a2     +CPI R26 , LOW ( 0x2 )
001e9a e0e0     +LDI R30 , HIGH ( 0x2 )
001e9b 07be     +CPC R27 , R30
001e9c e0e0     +LDI R30 , BYTE3 ( 0x2 )
001e9d 078e     +CPC R24 , R30
001e9e e0e0     +LDI R30 , BYTE4 ( 0x2 )
001e9f 079e     +CPC R25 , R30
                 	__CPD2N 0x2
001ea0 f078      	BRLO _0x2020199
001ea1 89ad      	LDD  R26,Y+21
001ea2 89be      	LDD  R27,Y+21+1
001ea3 940e 211c 	CALL __GETW1P
001ea5 967e      	ADIW R30,30
001ea6 01df      	MOVW R26,R30
001ea7 940e 2120 	CALL __GETD1P
                +
001ea9 85ad     +LDD R26 , Y + 13
001eaa 85be     +LDD R27 , Y + 13 + 1
001eab 858f     +LDD R24 , Y + 13 + 2
001eac 8998     +LDD R25 , Y + 13 + 3
                 	__GETD2S 13
001ead 940e 216f 	CALL __CPD21
001eaf f040      	BRLO _0x2020198
                 _0x2020199:
001eb0 89ad      	LDD  R26,Y+21
001eb1 89be      	LDD  R27,Y+21+1
001eb2 9614      	ADIW R26,4
001eb3 91ec      	LD   R30,X
001eb4 68e0      	ORI  R30,0x80
001eb5 93ec      	ST   X,R30
001eb6 e0e2      	LDI  R30,LOW(2)
001eb7 c109      	RJMP _0x20C0001
                 _0x2020198:
                +
001eb8 85ed     +LDD R30 , Y + 13
001eb9 85fe     +LDD R31 , Y + 13 + 1
001eba 856f     +LDD R22 , Y + 13 + 2
001ebb 8978     +LDD R23 , Y + 13 + 3
                 	__GETD1S 13
                +
001ebc 89ad     +LDD R26 , Y + 21
001ebd 89be     +LDD R27 , Y + 21 + 1
001ebe 9652     +ADIW R26 , 18
001ebf 940e 212b+CALL __PUTDP1
                 	__PUTD1SNS 21,18
001ec1 89ed      	LDD  R30,Y+21
001ec2 89fe      	LDD  R31,Y+21+1
001ec3 9636      	ADIW R30,6
001ec4 010f      	MOVW R0,R30
001ec5 01df      	MOVW R26,R30
001ec6 940e 2120 	CALL __GETD1P
                +
001ec8 85a9     +LDD R26 , Y + 9
001ec9 85ba     +LDD R27 , Y + 9 + 1
001eca 858b     +LDD R24 , Y + 9 + 2
001ecb 859c     +LDD R25 , Y + 9 + 3
                 	__GETD2S 9
001ecc 940e 203c 	CALL __ADDD12
001ece 01d0      	MOVW R26,R0
001ecf 940e 212b 	CALL __PUTDP1
                +
001ed1 85a9     +LDD R26 , Y + 9
001ed2 85ba     +LDD R27 , Y + 9 + 1
001ed3 858b     +LDD R24 , Y + 9 + 2
001ed4 859c     +LDD R25 , Y + 9 + 3
                 	__GETD2S 9
                +
001ed5 89e9     +LDD R30 , Y + 17
001ed6 89fa     +LDD R31 , Y + 17 + 1
001ed7 896b     +LDD R22 , Y + 17 + 2
001ed8 897c     +LDD R23 , Y + 17 + 3
                 	__GETD1S 17
001ed9 940e 2046 	CALL __SUBD12
                +
001edb 8be9     +STD Y + 17 , R30
001edc 8bfa     +STD Y + 17 + 1 , R31
001edd 8b6b     +STD Y + 17 + 2 , R22
001ede 8b7c     +STD Y + 17 + 3 , R23
                 	__PUTD1S 17
001edf cf63      	RJMP _0x2020191
                 _0x2020193:
001ee0 89ed      	LDD  R30,Y+21
001ee1 89fe      	LDD  R31,Y+21+1
001ee2 9636      	ADIW R30,6
001ee3 010f      	MOVW R0,R30
001ee4 01df      	MOVW R26,R30
001ee5 940e 2120 	CALL __GETD1P
                +
001ee7 89a9     +LDD R26 , Y + 17
001ee8 89ba     +LDD R27 , Y + 17 + 1
001ee9 898b     +LDD R24 , Y + 17 + 2
001eea 899c     +LDD R25 , Y + 17 + 3
                 	__GETD2S 17
001eeb 940e 203c 	CALL __ADDD12
001eed 01d0      	MOVW R26,R0
001eee 940e 212b 	CALL __PUTDP1
                +
001ef0 89a9     +LDD R26 , Y + 17
001ef1 89ba     +LDD R27 , Y + 17 + 1
001ef2 898b     +LDD R24 , Y + 17 + 2
001ef3 899c     +LDD R25 , Y + 17 + 3
                 	__GETD2S 17
                +
001ef4 e0e0     +LDI R30 , LOW ( 0x200 )
001ef5 e0f2     +LDI R31 , HIGH ( 0x200 )
001ef6 e060     +LDI R22 , BYTE3 ( 0x200 )
001ef7 e070     +LDI R23 , BYTE4 ( 0x200 )
                 	__GETD1N 0x200
001ef8 940e 20e9 	CALL __DIVD21U
                +
001efa 89ad     +LDD R26 , Y + 21
001efb 89be     +LDD R27 , Y + 21 + 1
001efc 9615     +ADIW R26 , 5
001efd 93ec     +ST X , R30
                 	__PUTB1SNS 21,5
                +
001efe 89e9     +LDD R30 , Y + 17
001eff 89fa     +LDD R31 , Y + 17 + 1
001f00 896b     +LDD R22 , Y + 17 + 2
001f01 897c     +LDD R23 , Y + 17 + 3
                 	__GETD1S 17
001f02 70f1      	ANDI R31,HIGH(0x1FF)
001f03 9730      	SBIW R30,0
001f04 f189      	BREQ _0x202019B
001f05 89ad      	LDD  R26,Y+21
001f06 89be      	LDD  R27,Y+21+1
001f07 940e 211c 	CALL __GETW1P
001f09 93fa      	ST   -Y,R31
001f0a 93ea      	ST   -Y,R30
                +
001f0b 85af     +LDD R26 , Y + 15
001f0c 89b8     +LDD R27 , Y + 15 + 1
001f0d 8989     +LDD R24 , Y + 15 + 2
001f0e 899a     +LDD R25 , Y + 15 + 3
                 	__GETD2S 15
001f0f 940e 1068 	CALL _clust2sect
                +
001f11 83ed     +STD Y + 5 , R30
001f12 83fe     +STD Y + 5 + 1 , R31
001f13 836f     +STD Y + 5 + 2 , R22
001f14 8778     +STD Y + 5 + 3 , R23
                 	__PUTD1S 5
001f15 940e 2160 	CALL __CPD10
001f17 f441      	BRNE _0x202019C
001f18 89ad      	LDD  R26,Y+21
001f19 89be      	LDD  R27,Y+21+1
001f1a 9614      	ADIW R26,4
001f1b 91ec      	LD   R30,X
001f1c 68e0      	ORI  R30,0x80
001f1d 93ec      	ST   X,R30
001f1e e0e2      	LDI  R30,LOW(2)
001f1f c0a1      	RJMP _0x20C0001
                 _0x202019C:
001f20 89ed      	LDD  R30,Y+21
001f21 89fe      	LDD  R31,Y+21+1
001f22 81e5      	LDD  R30,Z+5
001f23 e0f0      	LDI  R31,0
                +
001f24 81ad     +LDD R26 , Y + 5
001f25 81be     +LDD R27 , Y + 5 + 1
001f26 818f     +LDD R24 , Y + 5 + 2
001f27 8598     +LDD R25 , Y + 5 + 3
                 	__GETD2S 5
001f28 940e 2097 	CALL __CWD1
001f2a 940e 203c 	CALL __ADDD12
                +
001f2c 83ed     +STD Y + 5 , R30
001f2d 83fe     +STD Y + 5 + 1 , R31
001f2e 836f     +STD Y + 5 + 2 , R22
001f2f 8778     +STD Y + 5 + 3 , R23
                 	__PUTD1S 5
001f30 89ad      	LDD  R26,Y+21
001f31 89be      	LDD  R27,Y+21+1
001f32 9615      	ADIW R26,5
001f33 91ec      	LD   R30,X
001f34 5fef      	SUBI R30,-LOW(1)
001f35 93ec      	ST   X,R30
                 _0x202019B:
                 _0x2020190:
                 _0x2020188:
001f36 89ed      	LDD  R30,Y+21
001f37 89fe      	LDD  R31,Y+21+1
                +
001f38 81a6     +LDD R26 , Z + 6
001f39 81b7     +LDD R27 , Z + 6 + 1
001f3a 8580     +LDD R24 , Z + 6 + 2
001f3b 8591     +LDD R25 , Z + 6 + 3
                 	__GETD2Z 6
001f3c 01fd      	MOVW R30,R26
001f3d 01bc      	MOVW R22,R24
001f3e 70f1      	ANDI R31,HIGH(0x1FF)
001f3f 9730      	SBIW R30,0
001f40 f061      	BREQ _0x202019E
001f41 89ad      	LDD  R26,Y+21
001f42 89be      	LDD  R27,Y+21+1
001f43 9656      	ADIW R26,22
001f44 940e 2120 	CALL __GETD1P
                +
001f46 81ad     +LDD R26 , Y + 5
001f47 81be     +LDD R27 , Y + 5 + 1
001f48 818f     +LDD R24 , Y + 5 + 2
001f49 8598     +LDD R25 , Y + 5 + 3
                 	__GETD2S 5
001f4a 940e 216a 	CALL __CPD12
001f4c f409      	BRNE _0x202019F
                 _0x202019E:
001f4d c052      	RJMP _0x202019D
                 _0x202019F:
001f4e 89ed      	LDD  R30,Y+21
001f4f 89fe      	LDD  R31,Y+21+1
001f50 81a4      	LDD  R26,Z+4
001f51 74a0      	ANDI R26,LOW(0x40)
001f52 f131      	BREQ _0x20201A0
001f53 89ad      	LDD  R26,Y+21
001f54 89be      	LDD  R27,Y+21+1
001f55 940e 211c 	CALL __GETW1P
001f57 81e1      	LDD  R30,Z+1
001f58 93ea      	ST   -Y,R30
001f59 89ee      	LDD  R30,Y+22
001f5a 89ff      	LDD  R31,Y+22+1
001f5b 96b0      	ADIW R30,32
001f5c 93fa      	ST   -Y,R31
001f5d 93ea      	ST   -Y,R30
001f5e 8de8      	LDD  R30,Y+24
001f5f 8df9      	LDD  R31,Y+24+1
                +
001f60 89a6     +LDD R26 , Z + 22
001f61 89b7     +LDD R27 , Z + 22 + 1
001f62 8d80     +LDD R24 , Z + 22 + 2
001f63 8d91     +LDD R25 , Z + 22 + 3
                 	__GETD2Z 22
001f64 940e 214e 	CALL __PUTPARD2
001f66 e0a1      	LDI  R26,LOW(1)
001f67 940e 08b2 	CALL _disk_write
001f69 30e0      	CPI  R30,0
001f6a f041      	BREQ _0x20201A1
001f6b 89ad      	LDD  R26,Y+21
001f6c 89be      	LDD  R27,Y+21+1
001f6d 9614      	ADIW R26,4
001f6e 91ec      	LD   R30,X
001f6f 68e0      	ORI  R30,0x80
001f70 93ec      	ST   X,R30
001f71 e0e1      	LDI  R30,LOW(1)
001f72 c04e      	RJMP _0x20C0001
                 _0x20201A1:
001f73 89ad      	LDD  R26,Y+21
001f74 89be      	LDD  R27,Y+21+1
001f75 9614      	ADIW R26,4
001f76 91ec      	LD   R30,X
001f77 7bef      	ANDI R30,0xBF
001f78 93ec      	ST   X,R30
                 _0x20201A0:
001f79 89ad      	LDD  R26,Y+21
001f7a 89be      	LDD  R27,Y+21+1
001f7b 940e 211c 	CALL __GETW1P
001f7d 81e1      	LDD  R30,Z+1
001f7e 93ea      	ST   -Y,R30
001f7f 89ee      	LDD  R30,Y+22
001f80 89ff      	LDD  R31,Y+22+1
001f81 96b0      	ADIW R30,32
001f82 93fa      	ST   -Y,R31
001f83 93ea      	ST   -Y,R30
                +
001f84 85e8     +LDD R30 , Y + 8
001f85 85f9     +LDD R31 , Y + 8 + 1
001f86 856a     +LDD R22 , Y + 8 + 2
001f87 857b     +LDD R23 , Y + 8 + 3
                 	__GETD1S 8
001f88 940e 2149 	CALL __PUTPARD1
001f8a e0a1      	LDI  R26,LOW(1)
001f8b 940e 084e 	CALL _disk_read
001f8d 30e0      	CPI  R30,0
001f8e f041      	BREQ _0x20201A2
001f8f 89ad      	LDD  R26,Y+21
001f90 89be      	LDD  R27,Y+21+1
001f91 9614      	ADIW R26,4
001f92 91ec      	LD   R30,X
001f93 68e0      	ORI  R30,0x80
001f94 93ec      	ST   X,R30
001f95 e0e1      	LDI  R30,LOW(1)
001f96 c02a      	RJMP _0x20C0001
                 _0x20201A2:
                +
001f97 81ed     +LDD R30 , Y + 5
001f98 81fe     +LDD R31 , Y + 5 + 1
001f99 816f     +LDD R22 , Y + 5 + 2
001f9a 8578     +LDD R23 , Y + 5 + 3
                 	__GETD1S 5
                +
001f9b 89ad     +LDD R26 , Y + 21
001f9c 89be     +LDD R27 , Y + 21 + 1
001f9d 9656     +ADIW R26 , 22
001f9e 940e 212b+CALL __PUTDP1
                 	__PUTD1SNS 21,22
                 _0x202019D:
001fa0 89ed      	LDD  R30,Y+21
001fa1 89fe      	LDD  R31,Y+21+1
                +
001fa2 81a6     +LDD R26 , Z + 6
001fa3 81b7     +LDD R27 , Z + 6 + 1
001fa4 8580     +LDD R24 , Z + 6 + 2
001fa5 8591     +LDD R25 , Z + 6 + 3
                 	__GETD2Z 6
001fa6 010d      	MOVW R0,R26
001fa7 89ad      	LDD  R26,Y+21
001fa8 89be      	LDD  R27,Y+21+1
001fa9 961a      	ADIW R26,10
001faa 940e 2120 	CALL __GETD1P
001fac 01d0      	MOVW R26,R0
001fad 940e 216a 	CALL __CPD12
001faf f480      	BRSH _0x20201A3
001fb0 89ad      	LDD  R26,Y+21
001fb1 89be      	LDD  R27,Y+21+1
001fb2 9616      	ADIW R26,6
001fb3 940e 2120 	CALL __GETD1P
                +
001fb5 89ad     +LDD R26 , Y + 21
001fb6 89be     +LDD R27 , Y + 21 + 1
001fb7 961a     +ADIW R26 , 10
001fb8 940e 212b+CALL __PUTDP1
                 	__PUTD1SNS 21,10
001fba 89ad      	LDD  R26,Y+21
001fbb 89be      	LDD  R27,Y+21+1
001fbc 9614      	ADIW R26,4
001fbd 91ec      	LD   R30,X
001fbe 62e0      	ORI  R30,0x20
001fbf 93ec      	ST   X,R30
                 _0x20201A3:
                 _0x20C0002:
001fc0 2fe1      	MOV  R30,R17
                 _0x20C0001:
001fc1 8118      	LDD  R17,Y+0
001fc2 9667      	ADIW R28,23
001fc3 9508      	RET
                 ; .FEND
                 _f_stat:
                 ; .FSTART _f_stat
001fc4 93ba      	ST   -Y,R27
001fc5 93aa      	ST   -Y,R26
001fc6 97a2      	SBIW R28,34
001fc7 931a      	ST   -Y,R17
001fc8 01fe      	MOVW R30,R28
001fc9 96b5      	ADIW R30,37
001fca 93fa      	ST   -Y,R31
001fcb 93ea      	ST   -Y,R30
001fcc 01fe      	MOVW R30,R28
001fcd 963f      	ADIW R30,15
001fce 93fa      	ST   -Y,R31
001fcf 93ea      	ST   -Y,R30
001fd0 e0a0      	LDI  R26,LOW(0)
001fd1 940e 1624 	CALL _chk_mounted
001fd3 2f1e      	MOV  R17,R30
001fd4 3010      	CPI  R17,0
001fd5 f4e9      	BRNE _0x20201B1
001fd6 01fe      	MOVW R30,R28
001fd7 9631      	ADIW R30,1
001fd8 a3e9      	STD  Y+33,R30
001fd9 a3fa      	STD  Y+33+1,R31
001fda 01fe      	MOVW R30,R28
001fdb 963d      	ADIW R30,13
001fdc 93fa      	ST   -Y,R31
001fdd 93ea      	ST   -Y,R30
001fde a1af      	LDD  R26,Y+39
001fdf a5b8      	LDD  R27,Y+39+1
001fe0 940e 1532 	CALL _follow_path_G101
001fe2 2f1e      	MOV  R17,R30
001fe3 3010      	CPI  R17,0
001fe4 f471      	BRNE _0x20201B2
001fe5 8def      	LDD  R30,Y+31
001fe6 a1f8      	LDD  R31,Y+31+1
001fe7 9730      	SBIW R30,0
001fe8 f049      	BREQ _0x20201B3
001fe9 01fe      	MOVW R30,R28
001fea 963d      	ADIW R30,13
001feb 93fa      	ST   -Y,R31
001fec 93ea      	ST   -Y,R30
001fed a1ad      	LDD  R26,Y+37
001fee a1be      	LDD  R27,Y+37+1
001fef 940e 14a1 	CALL _get_fileinfo_G101
001ff1 c001      	RJMP _0x20201B4
                 _0x20201B3:
001ff2 e016      	LDI  R17,LOW(6)
                 _0x20201B4:
                 _0x20201B2:
                 _0x20201B1:
001ff3 2fe1      	MOV  R30,R17
001ff4 8118      	LDD  R17,Y+0
001ff5 96a7      	ADIW R28,39
001ff6 9508      	RET
                 ; .FEND
                 
                 	.CSEG
                 
                 	.CSEG
                 _memcmp:
                 ; .FSTART _memcmp
001ff7 93ba      	ST   -Y,R27
001ff8 93aa      	ST   -Y,R26
001ff9 2766          clr  r22
001ffa 2777          clr  r23
001ffb 9189          ld   r24,y+
001ffc 9199          ld   r25,y+
001ffd 91e9          ld   r30,y+
001ffe 91f9          ld   r31,y+
001fff 91a9          ld   r26,y+
002000 91b9          ld   r27,y+
                 memcmp0:
002001 9600          adiw r24,0
002002 f029          breq memcmp1
002003 9701          sbiw r24,1
002004 916d          ld   r22,x+
002005 9171          ld   r23,z+
002006 1767          cp   r22,r23
002007 f3c9          breq memcmp0
                 memcmp1:
002008 1b67          sub  r22,r23
002009 f410          brcc memcmp2
00200a efef          ldi  r30,-1
00200b 9508          ret
                 memcmp2:
00200c e0e0          ldi  r30,0
00200d f009          breq memcmp3
00200e 95e3          inc  r30
                 memcmp3:
00200f 9508          ret
                 ; .FEND
                 _memcpy:
                 ; .FSTART _memcpy
002010 93ba      	ST   -Y,R27
002011 93aa      	ST   -Y,R26
002012 8199          ldd  r25,y+1
002013 8188          ld   r24,y
002014 9600          adiw r24,0
002015 f041          breq memcpy1
002016 81bd          ldd  r27,y+5
002017 81ac          ldd  r26,y+4
002018 81fb          ldd  r31,y+3
002019 81ea          ldd  r30,y+2
                 memcpy0:
00201a 9161          ld   r22,z+
00201b 936d          st   x+,r22
00201c 9701          sbiw r24,1
00201d f7e1          brne memcpy0
                 memcpy1:
00201e 81fd          ldd  r31,y+5
00201f 81ec          ldd  r30,y+4
002020 9626      	ADIW R28,6
002021 9508      	RET
                 ; .FEND
                 _memset:
                 ; .FSTART _memset
002022 93ba      	ST   -Y,R27
002023 93aa      	ST   -Y,R26
002024 81b9          ldd  r27,y+1
002025 81a8          ld   r26,y
002026 9610          adiw r26,0
002027 f031          breq memset1
002028 81fc          ldd  r31,y+4
002029 81eb          ldd  r30,y+3
00202a 816a          ldd  r22,y+2
                 memset0:
00202b 9361          st   z+,r22
00202c 9711          sbiw r26,1
00202d f7e9          brne memset0
                 memset1:
00202e 81eb          ldd  r30,y+3
00202f 81fc          ldd  r31,y+4
002030 9625      	ADIW R28,5
002031 9508      	RET
                 ; .FEND
                 
                 	.CSEG
                 
                 	.DSEG
                 
                 	.CSEG
                 
                 	.CSEG
                 
                 	.DSEG
                 _prtc_get_time:
002400           	.BYTE 0x2
                 _prtc_get_date:
002402           	.BYTE 0x2
                 _fat:
002404           	.BYTE 0x232
                 _file:
002636           	.BYTE 0x220
                 _finfo:
002856           	.BYTE 0x16
                 _path:
00286c           	.BYTE 0x16
                 _buffer_1:
002882           	.BYTE 0x600
                 _FROM_SD:
002e82           	.BYTE 0x4
                 _SEND:
002e86           	.BYTE 0x6
                 _WFM:
002e8c           	.BYTE 0x40
                 _flength:
002ecc           	.BYTE 0x4
                 _status_G100:
002ed0           	.BYTE 0x1
                 _timer1_G100:
002ed1           	.BYTE 0x1
                 _timer2_G100:
002ed2           	.BYTE 0x1
                 _card_type_G100:
002ed3           	.BYTE 0x1
                 _FatFs_G101:
002ed4           	.BYTE 0x2
                 _Fsid_G101:
002ed6           	.BYTE 0x2
                 _Drive_G101:
002ed8           	.BYTE 0x1
                 __seed_G104:
002ed9           	.BYTE 0x4
                 
                 	.CSEG
                 
                 	.CSEG
                 _delay_ms:
002032 9610      	adiw r26,0
002033 f039      	breq __delay_ms1
                 __delay_ms0:
                +
002034 e480     +LDI R24 , LOW ( 0x1F40 )
002035 e19f     +LDI R25 , HIGH ( 0x1F40 )
                +__DELAY_USW_LOOP :
002036 9701     +SBIW R24 , 1
002037 f7f1     +BRNE __DELAY_USW_LOOP
                 	__DELAY_USW 0x1F40
002038 95a8      	wdr
002039 9711      	sbiw r26,1
00203a f7c9      	brne __delay_ms0
                 __delay_ms1:
00203b 9508      	ret
                 
                 __ADDD12:
00203c 0fea      	ADD  R30,R26
00203d 1ffb      	ADC  R31,R27
00203e 1f68      	ADC  R22,R24
00203f 1f79      	ADC  R23,R25
002040 9508      	RET
                 
                 __ADDD21:
002041 0fae      	ADD  R26,R30
002042 1fbf      	ADC  R27,R31
002043 1f86      	ADC  R24,R22
002044 1f97      	ADC  R25,R23
002045 9508      	RET
                 
                 __SUBD12:
002046 1bea      	SUB  R30,R26
002047 0bfb      	SBC  R31,R27
002048 0b68      	SBC  R22,R24
002049 0b79      	SBC  R23,R25
00204a 9508      	RET
                 
                 __SUBD21:
00204b 1bae      	SUB  R26,R30
00204c 0bbf      	SBC  R27,R31
00204d 0b86      	SBC  R24,R22
00204e 0b97      	SBC  R25,R23
00204f 9508      	RET
                 
                 __ANDD12:
002050 23ea      	AND  R30,R26
002051 23fb      	AND  R31,R27
002052 2368      	AND  R22,R24
002053 2379      	AND  R23,R25
002054 9508      	RET
                 
                 __ORD12:
002055 2bea      	OR   R30,R26
002056 2bfb      	OR   R31,R27
002057 2b68      	OR   R22,R24
002058 2b79      	OR   R23,R25
002059 9508      	RET
                 
                 __ANEGW1:
00205a 95f1      	NEG  R31
00205b 95e1      	NEG  R30
00205c 40f0      	SBCI R31,0
00205d 9508      	RET
                 
                 __LSLD12:
00205e 23ee      	TST  R30
00205f 2e0e      	MOV  R0,R30
002060 01fd      	MOVW R30,R26
002061 01bc      	MOVW R22,R24
002062 f031      	BREQ __LSLD12R
                 __LSLD12L:
002063 0fee      	LSL  R30
002064 1fff      	ROL  R31
002065 1f66      	ROL  R22
002066 1f77      	ROL  R23
002067 940a      	DEC  R0
002068 f7d1      	BRNE __LSLD12L
                 __LSLD12R:
002069 9508      	RET
                 
                 __LSRD12:
00206a 23ee      	TST  R30
00206b 2e0e      	MOV  R0,R30
00206c 01fd      	MOVW R30,R26
00206d 01bc      	MOVW R22,R24
00206e f031      	BREQ __LSRD12R
                 __LSRD12L:
00206f 9576      	LSR  R23
002070 9567      	ROR  R22
002071 95f7      	ROR  R31
002072 95e7      	ROR  R30
002073 940a      	DEC  R0
002074 f7d1      	BRNE __LSRD12L
                 __LSRD12R:
002075 9508      	RET
                 
                 __LSLW4:
002076 0fee      	LSL  R30
002077 1fff      	ROL  R31
                 __LSLW3:
002078 0fee      	LSL  R30
002079 1fff      	ROL  R31
                 __LSLW2:
00207a 0fee      	LSL  R30
00207b 1fff      	ROL  R31
00207c 0fee      	LSL  R30
00207d 1fff      	ROL  R31
00207e 9508      	RET
                 
                 __LSRW4:
00207f 95f6      	LSR  R31
002080 95e7      	ROR  R30
                 __LSRW3:
002081 95f6      	LSR  R31
002082 95e7      	ROR  R30
                 __LSRW2:
002083 95f6      	LSR  R31
002084 95e7      	ROR  R30
002085 95f6      	LSR  R31
002086 95e7      	ROR  R30
002087 9508      	RET
                 
                 __LSLD1:
002088 0fee      	LSL  R30
002089 1fff      	ROL  R31
00208a 1f66      	ROL  R22
00208b 1f77      	ROL  R23
00208c 9508      	RET
                 
                 __LSRD16:
00208d 2fe6      	MOV  R30,R22
00208e 2ff7      	MOV  R31,R23
00208f e060      	LDI  R22,0
002090 e070      	LDI  R23,0
002091 9508      	RET
                 
                 __LSLD16:
002092 2f6e      	MOV  R22,R30
002093 2f7f      	MOV  R23,R31
002094 e0e0      	LDI  R30,0
002095 e0f0      	LDI  R31,0
002096 9508      	RET
                 
                 __CWD1:
002097 2f6f      	MOV  R22,R31
002098 0f66      	ADD  R22,R22
002099 0b66      	SBC  R22,R22
00209a 2f76      	MOV  R23,R22
00209b 9508      	RET
                 
                 __COMD1:
00209c 95e0      	COM  R30
00209d 95f0      	COM  R31
00209e 9560      	COM  R22
00209f 9570      	COM  R23
0020a0 9508      	RET
                 
                 __EQB12:
0020a1 17ea      	CP   R30,R26
0020a2 e0e1      	LDI  R30,1
0020a3 f009      	BREQ __EQB12T
0020a4 27ee      	CLR  R30
                 __EQB12T:
0020a5 9508      	RET
                 
                 __LNEGB1:
0020a6 23ee      	TST  R30
0020a7 e0e1      	LDI  R30,1
0020a8 f009      	BREQ __LNEGB1F
0020a9 27ee      	CLR  R30
                 __LNEGB1F:
0020aa 9508      	RET
                 
                 __MULD12U:
0020ab 9f7a      	MUL  R23,R26
0020ac 2d70      	MOV  R23,R0
0020ad 9f6b      	MUL  R22,R27
0020ae 0d70      	ADD  R23,R0
0020af 9ff8      	MUL  R31,R24
0020b0 0d70      	ADD  R23,R0
0020b1 9fe9      	MUL  R30,R25
0020b2 0d70      	ADD  R23,R0
0020b3 9f6a      	MUL  R22,R26
0020b4 2d60      	MOV  R22,R0
0020b5 0d71      	ADD  R23,R1
0020b6 9ffb      	MUL  R31,R27
0020b7 0d60      	ADD  R22,R0
0020b8 1d71      	ADC  R23,R1
0020b9 9fe8      	MUL  R30,R24
0020ba 0d60      	ADD  R22,R0
0020bb 1d71      	ADC  R23,R1
0020bc 2788      	CLR  R24
0020bd 9ffa      	MUL  R31,R26
0020be 2df0      	MOV  R31,R0
0020bf 0d61      	ADD  R22,R1
0020c0 1f78      	ADC  R23,R24
0020c1 9feb      	MUL  R30,R27
0020c2 0df0      	ADD  R31,R0
0020c3 1d61      	ADC  R22,R1
0020c4 1f78      	ADC  R23,R24
0020c5 9fea      	MUL  R30,R26
0020c6 2de0      	MOV  R30,R0
0020c7 0df1      	ADD  R31,R1
0020c8 1f68      	ADC  R22,R24
0020c9 1f78      	ADC  R23,R24
0020ca 9508      	RET
                 
                 __MULB1W2U:
0020cb 2f6e      	MOV  R22,R30
0020cc 9f6a      	MUL  R22,R26
0020cd 01f0      	MOVW R30,R0
0020ce 9f6b      	MUL  R22,R27
0020cf 0df0      	ADD  R31,R0
0020d0 9508      	RET
                 
                 __DIVW21U:
0020d1 2400      	CLR  R0
0020d2 2411      	CLR  R1
0020d3 e190      	LDI  R25,16
                 __DIVW21U1:
0020d4 0faa      	LSL  R26
0020d5 1fbb      	ROL  R27
0020d6 1c00      	ROL  R0
0020d7 1c11      	ROL  R1
0020d8 1a0e      	SUB  R0,R30
0020d9 0a1f      	SBC  R1,R31
0020da f418      	BRCC __DIVW21U2
0020db 0e0e      	ADD  R0,R30
0020dc 1e1f      	ADC  R1,R31
0020dd c001      	RJMP __DIVW21U3
                 __DIVW21U2:
0020de 60a1      	SBR  R26,1
                 __DIVW21U3:
0020df 959a      	DEC  R25
0020e0 f799      	BRNE __DIVW21U1
0020e1 01fd      	MOVW R30,R26
0020e2 01d0      	MOVW R26,R0
0020e3 9508      	RET
                 
                 __DIVW21:
0020e4 d029      	RCALL __CHKSIGNW
0020e5 dfeb      	RCALL __DIVW21U
0020e6 f40e      	BRTC __DIVW211
0020e7 df72      	RCALL __ANEGW1
                 __DIVW211:
0020e8 9508      	RET
                 
                 __DIVD21U:
0020e9 933f      	PUSH R19
0020ea 934f      	PUSH R20
0020eb 935f      	PUSH R21
0020ec 2400      	CLR  R0
0020ed 2411      	CLR  R1
0020ee 2744      	CLR  R20
0020ef 2755      	CLR  R21
0020f0 e230      	LDI  R19,32
                 __DIVD21U1:
0020f1 0faa      	LSL  R26
0020f2 1fbb      	ROL  R27
0020f3 1f88      	ROL  R24
0020f4 1f99      	ROL  R25
0020f5 1c00      	ROL  R0
0020f6 1c11      	ROL  R1
0020f7 1f44      	ROL  R20
0020f8 1f55      	ROL  R21
0020f9 1a0e      	SUB  R0,R30
0020fa 0a1f      	SBC  R1,R31
0020fb 0b46      	SBC  R20,R22
0020fc 0b57      	SBC  R21,R23
0020fd f428      	BRCC __DIVD21U2
0020fe 0e0e      	ADD  R0,R30
0020ff 1e1f      	ADC  R1,R31
002100 1f46      	ADC  R20,R22
002101 1f57      	ADC  R21,R23
002102 c001      	RJMP __DIVD21U3
                 __DIVD21U2:
002103 60a1      	SBR  R26,1
                 __DIVD21U3:
002104 953a      	DEC  R19
002105 f759      	BRNE __DIVD21U1
002106 01fd      	MOVW R30,R26
002107 01bc      	MOVW R22,R24
002108 01d0      	MOVW R26,R0
002109 01ca      	MOVW R24,R20
00210a 915f      	POP  R21
00210b 914f      	POP  R20
00210c 913f      	POP  R19
00210d 9508      	RET
                 
                 __CHKSIGNW:
00210e 94e8      	CLT
00210f fff7      	SBRS R31,7
002110 c002      	RJMP __CHKSW1
002111 df48      	RCALL __ANEGW1
002112 9468      	SET
                 __CHKSW1:
002113 ffb7      	SBRS R27,7
002114 c006      	RJMP __CHKSW2
002115 95a0      	COM  R26
002116 95b0      	COM  R27
002117 9611      	ADIW R26,1
002118 f800      	BLD  R0,0
002119 9403      	INC  R0
00211a fa00      	BST  R0,0
                 __CHKSW2:
00211b 9508      	RET
                 
                 __GETW1P:
00211c 91ed      	LD   R30,X+
00211d 91fc      	LD   R31,X
00211e 9711      	SBIW R26,1
00211f 9508      	RET
                 
                 __GETD1P:
002120 91ed      	LD   R30,X+
002121 91fd      	LD   R31,X+
002122 916d      	LD   R22,X+
002123 917c      	LD   R23,X
002124 9713      	SBIW R26,3
002125 9508      	RET
                 
                 __GETD1P_INC:
002126 91ed      	LD   R30,X+
002127 91fd      	LD   R31,X+
002128 916d      	LD   R22,X+
002129 917d      	LD   R23,X+
00212a 9508      	RET
                 
                 __PUTDP1:
00212b 93ed      	ST   X+,R30
00212c 93fd      	ST   X+,R31
00212d 936d      	ST   X+,R22
00212e 937c      	ST   X,R23
00212f 9508      	RET
                 
                 __PUTDP1_DEC:
002130 937e      	ST   -X,R23
002131 936e      	ST   -X,R22
002132 93fe      	ST   -X,R31
002133 93ee      	ST   -X,R30
002134 9508      	RET
                 
                 __GETD1S0:
002135 81e8      	LD   R30,Y
002136 81f9      	LDD  R31,Y+1
002137 816a      	LDD  R22,Y+2
002138 817b      	LDD  R23,Y+3
002139 9508      	RET
                 
                 __GETD2S0:
00213a 81a8      	LD   R26,Y
00213b 81b9      	LDD  R27,Y+1
00213c 818a      	LDD  R24,Y+2
00213d 819b      	LDD  R25,Y+3
00213e 9508      	RET
                 
                 __PUTD1S0:
00213f 83e8      	ST   Y,R30
002140 83f9      	STD  Y+1,R31
002141 836a      	STD  Y+2,R22
002142 837b      	STD  Y+3,R23
002143 9508      	RET
                 
                 __PUTDZ20:
002144 83a0      	ST   Z,R26
002145 83b1      	STD  Z+1,R27
002146 8382      	STD  Z+2,R24
002147 8393      	STD  Z+3,R25
002148 9508      	RET
                 
                 __PUTPARD1:
002149 937a      	ST   -Y,R23
00214a 936a      	ST   -Y,R22
00214b 93fa      	ST   -Y,R31
00214c 93ea      	ST   -Y,R30
00214d 9508      	RET
                 
                 __PUTPARD2:
00214e 939a      	ST   -Y,R25
00214f 938a      	ST   -Y,R24
002150 93ba      	ST   -Y,R27
002151 93aa      	ST   -Y,R26
002152 9508      	RET
                 
                 __SWAPD12:
002153 2e18      	MOV  R1,R24
002154 2f86      	MOV  R24,R22
002155 2d61      	MOV  R22,R1
002156 2e19      	MOV  R1,R25
002157 2f97      	MOV  R25,R23
002158 2d71      	MOV  R23,R1
                 
                 __SWAPW12:
002159 2e1b      	MOV  R1,R27
00215a 2fbf      	MOV  R27,R31
00215b 2df1      	MOV  R31,R1
                 
                 __SWAPB12:
00215c 2e1a      	MOV  R1,R26
00215d 2fae      	MOV  R26,R30
00215e 2de1      	MOV  R30,R1
00215f 9508      	RET
                 
                 __CPD10:
002160 9730      	SBIW R30,0
002161 4060      	SBCI R22,0
002162 4070      	SBCI R23,0
002163 9508      	RET
                 
                 __CPD02:
002164 2400      	CLR  R0
002165 160a      	CP   R0,R26
002166 060b      	CPC  R0,R27
002167 0608      	CPC  R0,R24
002168 0609      	CPC  R0,R25
002169 9508      	RET
                 
                 __CPD12:
00216a 17ea      	CP   R30,R26
00216b 07fb      	CPC  R31,R27
00216c 0768      	CPC  R22,R24
00216d 0779      	CPC  R23,R25
00216e 9508      	RET
                 
                 __CPD21:
00216f 17ae      	CP   R26,R30
002170 07bf      	CPC  R27,R31
002171 0786      	CPC  R24,R22
002172 0797      	CPC  R25,R23
002173 9508      	RET
                 
                 __SAVELOCR6:
002174 935a      	ST   -Y,R21
                 __SAVELOCR5:
002175 934a      	ST   -Y,R20
                 __SAVELOCR4:
002176 933a      	ST   -Y,R19
                 __SAVELOCR3:
002177 932a      	ST   -Y,R18
                 __SAVELOCR2:
002178 931a      	ST   -Y,R17
002179 930a      	ST   -Y,R16
00217a 9508      	RET
                 
                 __LOADLOCR6:
00217b 815d      	LDD  R21,Y+5
                 __LOADLOCR5:
00217c 814c      	LDD  R20,Y+4
                 __LOADLOCR4:
00217d 813b      	LDD  R19,Y+3
                 __LOADLOCR3:
00217e 812a      	LDD  R18,Y+2
                 __LOADLOCR2:
00217f 8119      	LDD  R17,Y+1
002180 8108      	LD   R16,Y
002181 9508      	RET
                 
                 ;END OF CODE MARKER
                 __END_OF_CODE:


RESOURCE USE INFORMATION
------------------------

Notice:
The register and instruction counts are symbol table hit counts,
and hence implicitly used resources are not counted, eg, the
'lpm' instruction without operands implicitly uses r0 and z,
none of which are counted.

x,y,z are separate entities in the symbol table and are
counted separately from r26..r31 here.

.dseg memory usage only counts static data declared with .byte

ATxmega32A4U register use summary:
r0 :  76 r1 :  28 r2 :   4 r3 :  11 r4 :   9 r5 :   9 r6 :   5 r7 :   2 
r8 :   8 r9 :   6 r10:   4 r11:   1 r12:  11 r13:   4 r14:   0 r15:   2 
r16: 116 r17: 201 r18:  94 r19:  57 r20:  34 r21:  32 r22: 284 r23: 250 
r24: 280 r25: 222 r26:1121 r27: 618 r28:  76 r29:   1 r30:2294 r31: 736 
x  : 189 y  :2214 z  : 229 
Registers used: 34 out of 35 (97.1%)

ATxmega32A4U instruction use summary:
.lds  :   0 .lds.l:   0 .sts  :   0 .sts.l:   0 adc   :  54 add   :  56 
adiw  : 294 and   :   8 andi  : 166 asr   :   1 bclr  :   0 bld   :   1 
brbc  :   0 brbs  :   0 brcc  :   3 brcs  :   0 break :   0 breq  : 208 
brge  :   0 brhc  :   0 brhs  :   0 brid  :   0 brie  :   0 brlo  :  38 
brlt  :   1 brmi  :   0 brne  : 171 brpl  :   0 brsh  :  29 brtc  :   1 
brts  :   0 brvc  :   0 brvs  :   0 bset  :   0 bst   :   1 call  : 494 
cbi   :   5 cbr   :   0 clc   :   0 clh   :   0 cli   :   3 cln   :   0 
clr   : 103 cls   :   0 clt   :   1 clv   :   0 clz   :   0 com   :   6 
cp    :  21 cpc   : 115 cpi   : 245 cpse  :   0 dec   :  15 des   :   0 
eor   :   2 fmul  :   0 fmuls :   0 fmulsu:   0 icall :   2 ijmp  :   0 
in    :  14 inc   :   4 jmp   : 128 ld    : 123 ldd   :1738 ldi   : 862 
lds   : 178 lpm   :   9 lsl   :  22 lsr   :  16 mov   : 146 movw  : 212 
mul   :  14 muls  :   0 mulsu :   0 neg   :   2 nop   :   0 or    :  14 
ori   :  43 out   :  27 pop   :  76 push  :  76 rcall :  98 ret   :  79 
reti  :   2 rjmp  : 299 rol   :  26 ror   :  10 sbc   :  15 sbci  :  86 
sbi   :   5 sbic  :   1 sbis  :   4 sbiw  :  58 sbr   :   2 sbrc  :   3 
sbrs  :   6 sec   :   0 seh   :   0 sei   :   1 sen   :   0 ser   :   0 
ses   :   0 set   :   1 sev   :   0 sez   :   0 sleep :   0 spm   :   0 
st    : 483 std   : 280 sts   : 192 sub   :  10 subi  :  87 swap  :   5 
tst   :   3 wdr   :   1 
Instructions used: 71 out of 116 (61.2%)

ATxmega32A4U memory use summary [bytes]:
Segment   Begin    End      Code   Data   Used    Size   Use%
---------------------------------------------------------------
[.cseg] 0x000000 0x004304  16992    164  17156   36864  46.5%
[.dseg] 0x002000 0x002edd      0   2781   2781    4096  67.9%
[.eseg] 0x000000 0x000000      0      0      0    1024   0.0%

Assembly complete, 0 errors, 17 warnings
